
system:     file format elf32-i386


Disassembly of section .text.main:

00010000 <main-0x10>:
   10000:	18 66 90             	sbb    %ah,-0x70(%esi)
   10003:	66 90                	xchg   %ax,%ax
   10005:	66 90                	xchg   %ax,%ax
   10007:	66 90                	xchg   %ax,%ax
   10009:	66 90                	xchg   %ax,%ax
   1000b:	66 90                	xchg   %ax,%ax
   1000d:	66 90                	xchg   %ax,%ax
   1000f:	90                   	nop

00010010 <main>:
   10010:	8d 4c 24 04          	lea    0x4(%esp),%ecx
   10014:	83 e4 f0             	and    $0xfffffff0,%esp
   10017:	ff 71 fc             	pushl  -0x4(%ecx)
   1001a:	55                   	push   %ebp
   1001b:	89 e5                	mov    %esp,%ebp
   1001d:	53                   	push   %ebx
   1001e:	51                   	push   %ecx
   1001f:	e8 98 1a 00 00       	call   11abc <__x86.get_pc_thunk.bx>
   10024:	81 c3 4c 29 00 00    	add    $0x294c,%ebx
   1002a:	e8 01 11 00 00       	call   11130 <set_eflags>
   1002f:	c7 c0 00 50 01 00    	mov    $0x15000,%eax
   10035:	ba 18 00 00 00       	mov    $0x18,%edx
   1003a:	05 ec 3f 00 00       	add    $0x3fec,%eax
   1003f:	fc                   	cld    
   10040:	8e da                	mov    %edx,%ds
   10042:	8e c2                	mov    %edx,%es
   10044:	8e e2                	mov    %edx,%fs
   10046:	8e ea                	mov    %edx,%gs
   10048:	8e d2                	mov    %edx,%ss
   1004a:	89 c4                	mov    %eax,%esp
   1004c:	8d 83 60 f1 ff ff    	lea    -0xea0(%ebx),%eax
   10052:	83 ec 0c             	sub    $0xc,%esp
   10055:	50                   	push   %eax
   10056:	e8 d5 04 00 00       	call   10530 <printk>
   1005b:	e8 20 0c 00 00       	call   10c80 <setGdt>
   10060:	e8 6b 01 00 00       	call   101d0 <setIdt>
   10065:	e8 66 0c 00 00       	call   10cd0 <setTSS>
   1006a:	e8 e1 0a 00 00       	call   10b50 <init_mm>
   1006f:	e8 ec 06 00 00       	call   10760 <init_sched>
   10074:	e8 d7 05 00 00       	call   10650 <init_idle>
   10079:	e8 52 06 00 00       	call   106d0 <init_task1>
   1007e:	8b 83 74 ff ff ff    	mov    -0x8c(%ebx),%eax
   10084:	83 c4 0c             	add    $0xc,%esp
   10087:	ff 30                	pushl  (%eax)
   10089:	8b 83 78 ff ff ff    	mov    -0x88(%ebx),%eax
   1008f:	ff b3 7c ff ff ff    	pushl  -0x84(%ebx)
   10095:	8b 00                	mov    (%eax),%eax
   10097:	05 00 00 01 00       	add    $0x10000,%eax
   1009c:	50                   	push   %eax
   1009d:	e8 ee 0e 00 00       	call   10f90 <copy_data>
   100a2:	8d 83 73 f1 ff ff    	lea    -0xe8d(%ebx),%eax
   100a8:	89 04 24             	mov    %eax,(%esp)
   100ab:	e8 80 04 00 00       	call   10530 <printk>
   100b0:	e8 1b 11 00 00       	call   111d0 <enable_int>
   100b5:	c7 04 24 00 00 10 00 	movl   $0x100000,(%esp)
   100bc:	6a 23                	push   $0x23
   100be:	68 f0 bf 11 00       	push   $0x11bff0
   100c3:	6a 2b                	push   $0x2b
   100c5:	6a 2b                	push   $0x2b
   100c7:	e8 b4 10 00 00       	call   11180 <return_gate>
   100cc:	8d 65 f8             	lea    -0x8(%ebp),%esp
   100cf:	31 c0                	xor    %eax,%eax
   100d1:	59                   	pop    %ecx
   100d2:	5b                   	pop    %ebx
   100d3:	5d                   	pop    %ebp
   100d4:	8d 61 fc             	lea    -0x4(%ecx),%esp
   100d7:	c3                   	ret    

Disassembly of section .text:

000100e0 <setInterruptHandler>:
   100e0:	55                   	push   %ebp
   100e1:	e8 da 19 00 00       	call   11ac0 <__x86.get_pc_thunk.dx>
   100e6:	81 c2 8a 28 00 00    	add    $0x288a,%edx
   100ec:	89 e5                	mov    %esp,%ebp
   100ee:	53                   	push   %ebx
   100ef:	0f b7 45 10          	movzwl 0x10(%ebp),%eax
   100f3:	8b 4d 08             	mov    0x8(%ebp),%ecx
   100f6:	c7 c2 c0 29 01 00    	mov    $0x129c0,%edx
   100fc:	8b 5d 0c             	mov    0xc(%ebp),%ebx
   100ff:	c1 e0 0d             	shl    $0xd,%eax
   10102:	66 89 1c ca          	mov    %bx,(%edx,%ecx,8)
   10106:	c1 eb 10             	shr    $0x10,%ebx
   10109:	66 0d 00 8e          	or     $0x8e00,%ax
   1010d:	66 c7 44 ca 02 10 00 	movw   $0x10,0x2(%edx,%ecx,8)
   10114:	66 89 5c ca 06       	mov    %bx,0x6(%edx,%ecx,8)
   10119:	66 89 44 ca 04       	mov    %ax,0x4(%edx,%ecx,8)
   1011e:	5b                   	pop    %ebx
   1011f:	5d                   	pop    %ebp
   10120:	c3                   	ret    
   10121:	eb 0d                	jmp    10130 <setTrapHandler>
   10123:	90                   	nop
   10124:	90                   	nop
   10125:	90                   	nop
   10126:	90                   	nop
   10127:	90                   	nop
   10128:	90                   	nop
   10129:	90                   	nop
   1012a:	90                   	nop
   1012b:	90                   	nop
   1012c:	90                   	nop
   1012d:	90                   	nop
   1012e:	90                   	nop
   1012f:	90                   	nop

00010130 <setTrapHandler>:
   10130:	55                   	push   %ebp
   10131:	89 e5                	mov    %esp,%ebp
   10133:	5d                   	pop    %ebp
   10134:	eb aa                	jmp    100e0 <setInterruptHandler>
   10136:	8d 76 00             	lea    0x0(%esi),%esi
   10139:	8d bc 27 00 00 00 00 	lea    0x0(%edi,%eiz,1),%edi

00010140 <keyboard_routine>:
   10140:	55                   	push   %ebp
   10141:	89 e5                	mov    %esp,%ebp
   10143:	53                   	push   %ebx
   10144:	e8 73 19 00 00       	call   11abc <__x86.get_pc_thunk.bx>
   10149:	81 c3 27 28 00 00    	add    $0x2827,%ebx
   1014f:	83 ec 10             	sub    $0x10,%esp
   10152:	6a 60                	push   $0x60
   10154:	e8 b7 02 00 00       	call   10410 <inb>
   10159:	83 c4 10             	add    $0x10,%esp
   1015c:	84 c0                	test   %al,%al
   1015e:	78 13                	js     10173 <keyboard_routine+0x33>
   10160:	75 1e                	jne    10180 <keyboard_routine+0x40>
   10162:	83 ec 04             	sub    $0x4,%esp
   10165:	6a 63                	push   $0x63
   10167:	6a 00                	push   $0x0
   10169:	6a 00                	push   $0x0
   1016b:	e8 60 03 00 00       	call   104d0 <printc_xy>
   10170:	83 c4 10             	add    $0x10,%esp
   10173:	8b 5d fc             	mov    -0x4(%ebp),%ebx
   10176:	c9                   	leave  
   10177:	c3                   	ret    
   10178:	90                   	nop
   10179:	8d b4 26 00 00 00 00 	lea    0x0(%esi,%eiz,1),%esi
   10180:	0f b6 c0             	movzbl %al,%eax
   10183:	83 ec 04             	sub    $0x4,%esp
   10186:	0f be 84 03 90 ff ff 	movsbl -0x70(%ebx,%eax,1),%eax
   1018d:	ff 
   1018e:	50                   	push   %eax
   1018f:	6a 00                	push   $0x0
   10191:	6a 00                	push   $0x0
   10193:	e8 38 03 00 00       	call   104d0 <printc_xy>
   10198:	83 c4 10             	add    $0x10,%esp
   1019b:	8b 5d fc             	mov    -0x4(%ebp),%ebx
   1019e:	c9                   	leave  
   1019f:	c3                   	ret    

000101a0 <clock_routine>:
   101a0:	55                   	push   %ebp
   101a1:	89 e5                	mov    %esp,%ebp
   101a3:	53                   	push   %ebx
   101a4:	e8 13 19 00 00       	call   11abc <__x86.get_pc_thunk.bx>
   101a9:	81 c3 c7 27 00 00    	add    $0x27c7,%ebx
   101af:	83 ec 04             	sub    $0x4,%esp
   101b2:	83 83 10 00 00 00 01 	addl   $0x1,0x10(%ebx)
   101b9:	e8 62 11 00 00       	call   11320 <zeos_show_clock>
   101be:	83 c4 04             	add    $0x4,%esp
   101c1:	5b                   	pop    %ebx
   101c2:	5d                   	pop    %ebp
   101c3:	c3                   	ret    
   101c4:	8d b6 00 00 00 00    	lea    0x0(%esi),%esi
   101ca:	8d bf 00 00 00 00    	lea    0x0(%edi),%edi

000101d0 <setIdt>:
   101d0:	55                   	push   %ebp
   101d1:	b8 ff 07 00 00       	mov    $0x7ff,%eax
   101d6:	89 e5                	mov    %esp,%ebp
   101d8:	57                   	push   %edi
   101d9:	56                   	push   %esi
   101da:	53                   	push   %ebx
   101db:	e8 dc 18 00 00       	call   11abc <__x86.get_pc_thunk.bx>
   101e0:	81 c3 90 27 00 00    	add    $0x2790,%ebx
   101e6:	83 ec 0c             	sub    $0xc,%esp
   101e9:	c7 c6 c0 29 01 00    	mov    $0x129c0,%esi
   101ef:	c7 c7 a0 29 01 00    	mov    $0x129a0,%edi
   101f5:	89 77 02             	mov    %esi,0x2(%edi)
   101f8:	66 89 07             	mov    %ax,(%edi)
   101fb:	e8 a0 14 00 00       	call   116a0 <set_handlers>
   10200:	c7 c0 8e 02 01 00    	mov    $0x1028e,%eax
   10206:	83 ec 08             	sub    $0x8,%esp
   10209:	c7 86 0a 01 00 00 10 	movl   $0x8e000010,0x10a(%esi)
   10210:	00 00 8e 
   10213:	c7 86 02 01 00 00 10 	movl   $0x8e000010,0x102(%esi)
   1021a:	00 00 8e 
   1021d:	66 89 86 08 01 00 00 	mov    %ax,0x108(%esi)
   10224:	c1 e8 10             	shr    $0x10,%eax
   10227:	66 89 86 0e 01 00 00 	mov    %ax,0x10e(%esi)
   1022e:	c7 c0 bb 02 01 00    	mov    $0x102bb,%eax
   10234:	66 89 86 00 01 00 00 	mov    %ax,0x100(%esi)
   1023b:	c1 e8 10             	shr    $0x10,%eax
   1023e:	66 89 86 06 01 00 00 	mov    %ax,0x106(%esi)
   10245:	68 74 01 00 00       	push   $0x174
   1024a:	6a 10                	push   $0x10
   1024c:	e8 2d 01 00 00       	call   1037e <write_msr>
   10251:	c7 c0 00 50 01 00    	mov    $0x15000,%eax
   10257:	5a                   	pop    %edx
   10258:	59                   	pop    %ecx
   10259:	05 00 20 00 00       	add    $0x2000,%eax
   1025e:	68 75 01 00 00       	push   $0x175
   10263:	50                   	push   %eax
   10264:	e8 15 01 00 00       	call   1037e <write_msr>
   10269:	5e                   	pop    %esi
   1026a:	58                   	pop    %eax
   1026b:	68 76 01 00 00       	push   $0x176
   10270:	ff b3 fc ff ff ff    	pushl  -0x4(%ebx)
   10276:	e8 03 01 00 00       	call   1037e <write_msr>
   1027b:	89 3c 24             	mov    %edi,(%esp)
   1027e:	e8 bd 0e 00 00       	call   11140 <set_idt_reg>
   10283:	83 c4 10             	add    $0x10,%esp
   10286:	8d 65 f4             	lea    -0xc(%ebp),%esp
   10289:	5b                   	pop    %ebx
   1028a:	5e                   	pop    %esi
   1028b:	5f                   	pop    %edi
   1028c:	5d                   	pop    %ebp
   1028d:	c3                   	ret    

0001028e <keyboard_handler>:
   1028e:	0f a8                	push   %gs
   10290:	0f a0                	push   %fs
   10292:	06                   	push   %es
   10293:	1e                   	push   %ds
   10294:	50                   	push   %eax
   10295:	55                   	push   %ebp
   10296:	57                   	push   %edi
   10297:	56                   	push   %esi
   10298:	52                   	push   %edx
   10299:	51                   	push   %ecx
   1029a:	53                   	push   %ebx
   1029b:	ba 18 00 00 00       	mov    $0x18,%edx
   102a0:	8e da                	mov    %edx,%ds
   102a2:	8e c2                	mov    %edx,%es
   102a4:	e8 97 fe ff ff       	call   10140 <keyboard_routine>
   102a9:	5b                   	pop    %ebx
   102aa:	59                   	pop    %ecx
   102ab:	5a                   	pop    %edx
   102ac:	5e                   	pop    %esi
   102ad:	5f                   	pop    %edi
   102ae:	5d                   	pop    %ebp
   102af:	58                   	pop    %eax
   102b0:	1f                   	pop    %ds
   102b1:	07                   	pop    %es
   102b2:	0f a1                	pop    %fs
   102b4:	0f a9                	pop    %gs
   102b6:	b0 20                	mov    $0x20,%al
   102b8:	e6 20                	out    %al,$0x20
   102ba:	cf                   	iret   

000102bb <clock_handler>:
   102bb:	0f a8                	push   %gs
   102bd:	0f a0                	push   %fs
   102bf:	06                   	push   %es
   102c0:	1e                   	push   %ds
   102c1:	50                   	push   %eax
   102c2:	55                   	push   %ebp
   102c3:	57                   	push   %edi
   102c4:	56                   	push   %esi
   102c5:	52                   	push   %edx
   102c6:	51                   	push   %ecx
   102c7:	53                   	push   %ebx
   102c8:	ba 18 00 00 00       	mov    $0x18,%edx
   102cd:	8e da                	mov    %edx,%ds
   102cf:	8e c2                	mov    %edx,%es
   102d1:	b0 20                	mov    $0x20,%al
   102d3:	e6 20                	out    %al,$0x20
   102d5:	e8 c6 fe ff ff       	call   101a0 <clock_routine>
   102da:	5b                   	pop    %ebx
   102db:	59                   	pop    %ecx
   102dc:	5a                   	pop    %edx
   102dd:	5e                   	pop    %esi
   102de:	5f                   	pop    %edi
   102df:	5d                   	pop    %ebp
   102e0:	58                   	pop    %eax
   102e1:	1f                   	pop    %ds
   102e2:	07                   	pop    %es
   102e3:	0f a1                	pop    %fs
   102e5:	0f a9                	pop    %gs
   102e7:	cf                   	iret   

000102e8 <system_call_handler>:
   102e8:	0f a8                	push   %gs
   102ea:	0f a0                	push   %fs
   102ec:	06                   	push   %es
   102ed:	1e                   	push   %ds
   102ee:	50                   	push   %eax
   102ef:	55                   	push   %ebp
   102f0:	57                   	push   %edi
   102f1:	56                   	push   %esi
   102f2:	52                   	push   %edx
   102f3:	51                   	push   %ecx
   102f4:	53                   	push   %ebx
   102f5:	ba 18 00 00 00       	mov    $0x18,%edx
   102fa:	8e da                	mov    %edx,%ds
   102fc:	8e c2                	mov    %edx,%es
   102fe:	83 f8 00             	cmp    $0x0,%eax
   10301:	7c 10                	jl     10313 <err>
   10303:	3d 15 00 00 00       	cmp    $0x15,%eax
   10308:	7f 09                	jg     10313 <err>
   1030a:	ff 14 85 b3 03 01 00 	call   *0x103b3(,%eax,4)
   10311:	eb 05                	jmp    10318 <fin>

00010313 <err>:
   10313:	b8 da ff ff ff       	mov    $0xffffffda,%eax

00010318 <fin>:
   10318:	89 44 24 18          	mov    %eax,0x18(%esp)
   1031c:	5b                   	pop    %ebx
   1031d:	59                   	pop    %ecx
   1031e:	5a                   	pop    %edx
   1031f:	5e                   	pop    %esi
   10320:	5f                   	pop    %edi
   10321:	5d                   	pop    %ebp
   10322:	58                   	pop    %eax
   10323:	1f                   	pop    %ds
   10324:	07                   	pop    %es
   10325:	0f a1                	pop    %fs
   10327:	0f a9                	pop    %gs
   10329:	cf                   	iret   

0001032a <syscall_handler_sysenter>:
   1032a:	6a 2b                	push   $0x2b
   1032c:	55                   	push   %ebp
   1032d:	9c                   	pushf  
   1032e:	6a 23                	push   $0x23
   10330:	ff 75 04             	pushl  0x4(%ebp)
   10333:	0f a8                	push   %gs
   10335:	0f a0                	push   %fs
   10337:	06                   	push   %es
   10338:	1e                   	push   %ds
   10339:	50                   	push   %eax
   1033a:	55                   	push   %ebp
   1033b:	57                   	push   %edi
   1033c:	56                   	push   %esi
   1033d:	52                   	push   %edx
   1033e:	51                   	push   %ecx
   1033f:	53                   	push   %ebx
   10340:	ba 18 00 00 00       	mov    $0x18,%edx
   10345:	8e da                	mov    %edx,%ds
   10347:	8e c2                	mov    %edx,%es
   10349:	83 f8 00             	cmp    $0x0,%eax
   1034c:	7c 10                	jl     1035e <sysenter_err>
   1034e:	3d 15 00 00 00       	cmp    $0x15,%eax
   10353:	7f 09                	jg     1035e <sysenter_err>
   10355:	ff 14 85 b3 03 01 00 	call   *0x103b3(,%eax,4)
   1035c:	eb 05                	jmp    10363 <sysenter_fin>

0001035e <sysenter_err>:
   1035e:	b8 da ff ff ff       	mov    $0xffffffda,%eax

00010363 <sysenter_fin>:
   10363:	89 44 24 18          	mov    %eax,0x18(%esp)
   10367:	5b                   	pop    %ebx
   10368:	59                   	pop    %ecx
   10369:	5a                   	pop    %edx
   1036a:	5e                   	pop    %esi
   1036b:	5f                   	pop    %edi
   1036c:	5d                   	pop    %ebp
   1036d:	58                   	pop    %eax
   1036e:	1f                   	pop    %ds
   1036f:	07                   	pop    %es
   10370:	0f a1                	pop    %fs
   10372:	0f a9                	pop    %gs
   10374:	8b 14 24             	mov    (%esp),%edx
   10377:	8b 4c 24 0c          	mov    0xc(%esp),%ecx
   1037b:	fb                   	sti    
   1037c:	0f 35                	sysexit 

0001037e <write_msr>:
   1037e:	55                   	push   %ebp
   1037f:	89 ec                	mov    %ebp,%esp
   10381:	ba 00 00 00 00       	mov    $0x0,%edx
   10386:	8b 45 08             	mov    0x8(%ebp),%eax
   10389:	8b 4d 0c             	mov    0xc(%ebp),%ecx
   1038c:	0f 30                	wrmsr  
   1038e:	5d                   	pop    %ebp
   1038f:	c3                   	ret    

00010390 <task_switch>:
   10390:	55                   	push   %ebp
   10391:	89 ec                	mov    %ebp,%esp
   10393:	56                   	push   %esi
   10394:	57                   	push   %edi
   10395:	53                   	push   %ebx
   10396:	8b 5d 08             	mov    0x8(%ebp),%ebx
   10399:	e8 52 02 00 00       	call   105f0 <inner_task_switch>
   1039e:	83 c4 04             	add    $0x4,%esp
   103a1:	5b                   	pop    %ebx
   103a2:	5f                   	pop    %edi
   103a3:	5e                   	pop    %esi
   103a4:	5d                   	pop    %ebp
   103a5:	c3                   	ret    

000103a6 <inn_task_switch>:
   103a6:	55                   	push   %ebp
   103a7:	89 ec                	mov    %ebp,%esp
   103a9:	8b 45 08             	mov    0x8(%ebp),%eax
   103ac:	89 28                	mov    %ebp,(%eax)
   103ae:	8b 65 0c             	mov    0xc(%ebp),%esp
   103b1:	5d                   	pop    %ebp
   103b2:	c3                   	ret    

000103b3 <sys_call_table>:
   103b3:	20 09                	and    %cl,(%ecx)
   103b5:	01 00                	add    %eax,(%eax)
   103b7:	20 09                	and    %cl,(%ecx)
   103b9:	01 00                	add    %eax,(%eax)
   103bb:	20 09                	and    %cl,(%ecx)
   103bd:	01 00                	add    %eax,(%eax)
   103bf:	20 09                	and    %cl,(%ecx)
   103c1:	01 00                	add    %eax,(%eax)
   103c3:	00 08                	add    %cl,(%eax)
   103c5:	01 00                	add    %eax,(%eax)
   103c7:	20 09                	and    %cl,(%ecx)
   103c9:	01 00                	add    %eax,(%eax)
   103cb:	20 09                	and    %cl,(%ecx)
   103cd:	01 00                	add    %eax,(%eax)
   103cf:	20 09                	and    %cl,(%ecx)
   103d1:	01 00                	add    %eax,(%eax)
   103d3:	20 09                	and    %cl,(%ecx)
   103d5:	01 00                	add    %eax,(%eax)
   103d7:	20 09                	and    %cl,(%ecx)
   103d9:	01 00                	add    %eax,(%eax)
   103db:	00 09                	add    %cl,(%ecx)
   103dd:	01 00                	add    %eax,(%eax)
   103df:	20 09                	and    %cl,(%ecx)
   103e1:	01 00                	add    %eax,(%eax)
   103e3:	20 09                	and    %cl,(%ecx)
   103e5:	01 00                	add    %eax,(%eax)
   103e7:	20 09                	and    %cl,(%ecx)
   103e9:	01 00                	add    %eax,(%eax)
   103eb:	20 09                	and    %cl,(%ecx)
   103ed:	01 00                	add    %eax,(%eax)
   103ef:	20 09                	and    %cl,(%ecx)
   103f1:	01 00                	add    %eax,(%eax)
   103f3:	20 09                	and    %cl,(%ecx)
   103f5:	01 00                	add    %eax,(%eax)
   103f7:	20 09                	and    %cl,(%ecx)
   103f9:	01 00                	add    %eax,(%eax)
   103fb:	20 09                	and    %cl,(%ecx)
   103fd:	01 00                	add    %eax,(%eax)
   103ff:	20 09                	and    %cl,(%ecx)
   10401:	01 00                	add    %eax,(%eax)
   10403:	30 09                	xor    %cl,(%ecx)
   10405:	01 00                	add    %eax,(%eax)
   10407:	66 90                	xchg   %ax,%ax
   10409:	66 90                	xchg   %ax,%ax
   1040b:	66 90                	xchg   %ax,%ax
   1040d:	66 90                	xchg   %ax,%ax
   1040f:	90                   	nop

00010410 <inb>:
   10410:	55                   	push   %ebp
   10411:	89 e5                	mov    %esp,%ebp
   10413:	8b 55 08             	mov    0x8(%ebp),%edx
   10416:	ec                   	in     (%dx),%al
   10417:	5d                   	pop    %ebp
   10418:	c3                   	ret    
   10419:	8d b4 26 00 00 00 00 	lea    0x0(%esi,%eiz,1),%esi

00010420 <printc>:
   10420:	55                   	push   %ebp
   10421:	89 e5                	mov    %esp,%ebp
   10423:	57                   	push   %edi
   10424:	56                   	push   %esi
   10425:	8b 45 08             	mov    0x8(%ebp),%eax
   10428:	53                   	push   %ebx
   10429:	e8 8e 16 00 00       	call   11abc <__x86.get_pc_thunk.bx>
   1042e:	81 c3 42 25 00 00    	add    $0x2542,%ebx
   10434:	88 c0                	mov    %al,%al
   10436:	e6 e9                	out    %al,$0xe9
   10438:	3c 0a                	cmp    $0xa,%al
   1043a:	0f b6 93 f2 ff ff ff 	movzbl -0xe(%ebx),%edx
   10441:	74 5d                	je     104a0 <printc+0x80>
   10443:	c7 c7 c0 31 01 00    	mov    $0x131c0,%edi
   10449:	0f b6 c8             	movzbl %al,%ecx
   1044c:	8d 04 92             	lea    (%edx,%edx,4),%eax
   1044f:	80 cd 02             	or     $0x2,%ch
   10452:	c1 e0 04             	shl    $0x4,%eax
   10455:	0f b6 37             	movzbl (%edi),%esi
   10458:	8d b4 30 00 c0 05 00 	lea    0x5c000(%eax,%esi,1),%esi
   1045f:	0f b6 07             	movzbl (%edi),%eax
   10462:	01 f6                	add    %esi,%esi
   10464:	83 c0 01             	add    $0x1,%eax
   10467:	3c 4f                	cmp    $0x4f,%al
   10469:	77 0d                	ja     10478 <printc+0x58>
   1046b:	88 07                	mov    %al,(%edi)
   1046d:	66 89 0e             	mov    %cx,(%esi)
   10470:	5b                   	pop    %ebx
   10471:	5e                   	pop    %esi
   10472:	5f                   	pop    %edi
   10473:	5d                   	pop    %ebp
   10474:	c3                   	ret    
   10475:	8d 76 00             	lea    0x0(%esi),%esi
   10478:	c6 07 00             	movb   $0x0,(%edi)
   1047b:	8d 7a 01             	lea    0x1(%edx),%edi
   1047e:	ba 1f 85 eb 51       	mov    $0x51eb851f,%edx
   10483:	89 f8                	mov    %edi,%eax
   10485:	f7 e2                	mul    %edx
   10487:	c1 ea 03             	shr    $0x3,%edx
   1048a:	8d 04 92             	lea    (%edx,%edx,4),%eax
   1048d:	8d 04 80             	lea    (%eax,%eax,4),%eax
   10490:	29 c7                	sub    %eax,%edi
   10492:	89 fa                	mov    %edi,%edx
   10494:	88 93 f2 ff ff ff    	mov    %dl,-0xe(%ebx)
   1049a:	eb d1                	jmp    1046d <printc+0x4d>
   1049c:	8d 74 26 00          	lea    0x0(%esi,%eiz,1),%esi
   104a0:	c7 c0 c0 31 01 00    	mov    $0x131c0,%eax
   104a6:	8d 4a 01             	lea    0x1(%edx),%ecx
   104a9:	ba 1f 85 eb 51       	mov    $0x51eb851f,%edx
   104ae:	c6 00 00             	movb   $0x0,(%eax)
   104b1:	89 c8                	mov    %ecx,%eax
   104b3:	f7 e2                	mul    %edx
   104b5:	c1 ea 03             	shr    $0x3,%edx
   104b8:	8d 04 92             	lea    (%edx,%edx,4),%eax
   104bb:	8d 04 80             	lea    (%eax,%eax,4),%eax
   104be:	29 c1                	sub    %eax,%ecx
   104c0:	88 8b f2 ff ff ff    	mov    %cl,-0xe(%ebx)
   104c6:	5b                   	pop    %ebx
   104c7:	5e                   	pop    %esi
   104c8:	5f                   	pop    %edi
   104c9:	5d                   	pop    %ebp
   104ca:	c3                   	ret    
   104cb:	90                   	nop
   104cc:	8d 74 26 00          	lea    0x0(%esi,%eiz,1),%esi

000104d0 <printc_xy>:
   104d0:	55                   	push   %ebp
   104d1:	89 e5                	mov    %esp,%ebp
   104d3:	57                   	push   %edi
   104d4:	56                   	push   %esi
   104d5:	53                   	push   %ebx
   104d6:	e8 e1 15 00 00       	call   11abc <__x86.get_pc_thunk.bx>
   104db:	81 c3 95 24 00 00    	add    $0x2495,%ebx
   104e1:	83 ec 04             	sub    $0x4,%esp
   104e4:	8b 45 08             	mov    0x8(%ebp),%eax
   104e7:	c7 c6 c0 31 01 00    	mov    $0x131c0,%esi
   104ed:	0f b6 bb f2 ff ff ff 	movzbl -0xe(%ebx),%edi
   104f4:	0f b6 16             	movzbl (%esi),%edx
   104f7:	88 06                	mov    %al,(%esi)
   104f9:	8b 45 0c             	mov    0xc(%ebp),%eax
   104fc:	88 83 f2 ff ff ff    	mov    %al,-0xe(%ebx)
   10502:	0f be 45 10          	movsbl 0x10(%ebp),%eax
   10506:	88 55 f3             	mov    %dl,-0xd(%ebp)
   10509:	50                   	push   %eax
   1050a:	e8 11 ff ff ff       	call   10420 <printc>
   1050f:	0f b6 55 f3          	movzbl -0xd(%ebp),%edx
   10513:	89 f8                	mov    %edi,%eax
   10515:	88 83 f2 ff ff ff    	mov    %al,-0xe(%ebx)
   1051b:	58                   	pop    %eax
   1051c:	88 16                	mov    %dl,(%esi)
   1051e:	8d 65 f4             	lea    -0xc(%ebp),%esp
   10521:	5b                   	pop    %ebx
   10522:	5e                   	pop    %esi
   10523:	5f                   	pop    %edi
   10524:	5d                   	pop    %ebp
   10525:	c3                   	ret    
   10526:	8d 76 00             	lea    0x0(%esi),%esi
   10529:	8d bc 27 00 00 00 00 	lea    0x0(%edi,%eiz,1),%edi

00010530 <printk>:
   10530:	55                   	push   %ebp
   10531:	89 e5                	mov    %esp,%ebp
   10533:	53                   	push   %ebx
   10534:	8b 5d 08             	mov    0x8(%ebp),%ebx
   10537:	0f be 03             	movsbl (%ebx),%eax
   1053a:	84 c0                	test   %al,%al
   1053c:	74 1c                	je     1055a <printk+0x2a>
   1053e:	83 c3 01             	add    $0x1,%ebx
   10541:	8d b4 26 00 00 00 00 	lea    0x0(%esi,%eiz,1),%esi
   10548:	50                   	push   %eax
   10549:	83 c3 01             	add    $0x1,%ebx
   1054c:	e8 cf fe ff ff       	call   10420 <printc>
   10551:	0f be 43 ff          	movsbl -0x1(%ebx),%eax
   10555:	5a                   	pop    %edx
   10556:	84 c0                	test   %al,%al
   10558:	75 ee                	jne    10548 <printk+0x18>
   1055a:	8b 5d fc             	mov    -0x4(%ebp),%ebx
   1055d:	c9                   	leave  
   1055e:	c3                   	ret    
   1055f:	90                   	nop

00010560 <cpu_idle>:
   10560:	55                   	push   %ebp
   10561:	89 e5                	mov    %esp,%ebp
   10563:	fb                   	sti    
   10564:	eb fe                	jmp    10564 <cpu_idle+0x4>
   10566:	8d 76 00             	lea    0x0(%esi),%esi
   10569:	8d bc 27 00 00 00 00 	lea    0x0(%edi,%eiz,1),%edi

00010570 <list_head_to_task_struct>:
   10570:	55                   	push   %ebp
   10571:	89 e5                	mov    %esp,%ebp
   10573:	8b 45 08             	mov    0x8(%ebp),%eax
   10576:	5d                   	pop    %ebp
   10577:	25 00 f0 ff ff       	and    $0xfffff000,%eax
   1057c:	c3                   	ret    
   1057d:	8d 76 00             	lea    0x0(%esi),%esi

00010580 <get_DIR>:
   10580:	55                   	push   %ebp
   10581:	89 e5                	mov    %esp,%ebp
   10583:	8b 45 08             	mov    0x8(%ebp),%eax
   10586:	5d                   	pop    %ebp
   10587:	8b 40 04             	mov    0x4(%eax),%eax
   1058a:	c3                   	ret    
   1058b:	90                   	nop
   1058c:	8d 74 26 00          	lea    0x0(%esi,%eiz,1),%esi

00010590 <get_PT>:
   10590:	55                   	push   %ebp
   10591:	89 e5                	mov    %esp,%ebp
   10593:	8b 45 08             	mov    0x8(%ebp),%eax
   10596:	5d                   	pop    %ebp
   10597:	8b 40 04             	mov    0x4(%eax),%eax
   1059a:	8b 00                	mov    (%eax),%eax
   1059c:	25 00 f0 ff ff       	and    $0xfffff000,%eax
   105a1:	c3                   	ret    
   105a2:	8d b4 26 00 00 00 00 	lea    0x0(%esi,%eiz,1),%esi
   105a9:	8d bc 27 00 00 00 00 	lea    0x0(%edi,%eiz,1),%edi

000105b0 <allocate_DIR>:
   105b0:	55                   	push   %ebp
   105b1:	e8 0e 15 00 00       	call   11ac4 <__x86.get_pc_thunk.cx>
   105b6:	81 c1 ba 23 00 00    	add    $0x23ba,%ecx
   105bc:	89 e5                	mov    %esp,%ebp
   105be:	53                   	push   %ebx
   105bf:	8b 55 08             	mov    0x8(%ebp),%edx
   105c2:	8d 81 90 26 00 00    	lea    0x2690(%ecx),%eax
   105c8:	89 d3                	mov    %edx,%ebx
   105ca:	29 c3                	sub    %eax,%ebx
   105cc:	89 d8                	mov    %ebx,%eax
   105ce:	25 00 f0 ff ff       	and    $0xfffff000,%eax
   105d3:	81 c0 00 90 02 00    	add    $0x29000,%eax
   105d9:	89 42 04             	mov    %eax,0x4(%edx)
   105dc:	b8 01 00 00 00       	mov    $0x1,%eax
   105e1:	5b                   	pop    %ebx
   105e2:	5d                   	pop    %ebp
   105e3:	c3                   	ret    
   105e4:	8d b6 00 00 00 00    	lea    0x0(%esi),%esi
   105ea:	8d bf 00 00 00 00    	lea    0x0(%edi),%edi

000105f0 <inner_task_switch>:
   105f0:	55                   	push   %ebp
   105f1:	89 e5                	mov    %esp,%ebp
   105f3:	56                   	push   %esi
   105f4:	53                   	push   %ebx
   105f5:	8b 75 08             	mov    0x8(%ebp),%esi
   105f8:	e8 bf 14 00 00       	call   11abc <__x86.get_pc_thunk.bx>
   105fd:	81 c3 73 23 00 00    	add    $0x2373,%ebx
   10603:	83 ec 08             	sub    $0x8,%esp
   10606:	c7 c2 00 42 01 00    	mov    $0x14200,%edx
   1060c:	8d 86 00 10 00 00    	lea    0x1000(%esi),%eax
   10612:	89 42 04             	mov    %eax,0x4(%edx)
   10615:	68 75 01 00 00       	push   $0x175
   1061a:	50                   	push   %eax
   1061b:	e8 5e fd ff ff       	call   1037e <write_msr>
   10620:	58                   	pop    %eax
   10621:	ff 76 04             	pushl  0x4(%esi)
   10624:	e8 07 05 00 00       	call   10b30 <set_cr3>
   10629:	89 e0                	mov    %esp,%eax
   1062b:	5a                   	pop    %edx
   1062c:	25 00 f0 ff ff       	and    $0xfffff000,%eax
   10631:	83 c6 10             	add    $0x10,%esi
   10634:	59                   	pop    %ecx
   10635:	83 c0 10             	add    $0x10,%eax
   10638:	56                   	push   %esi
   10639:	50                   	push   %eax
   1063a:	e8 67 fd ff ff       	call   103a6 <inn_task_switch>
   1063f:	83 c4 10             	add    $0x10,%esp
   10642:	8d 65 f8             	lea    -0x8(%ebp),%esp
   10645:	5b                   	pop    %ebx
   10646:	5e                   	pop    %esi
   10647:	5d                   	pop    %ebp
   10648:	c3                   	ret    
   10649:	8d b4 26 00 00 00 00 	lea    0x0(%esi,%eiz,1),%esi

00010650 <init_idle>:
   10650:	55                   	push   %ebp
   10651:	89 e5                	mov    %esp,%ebp
   10653:	56                   	push   %esi
   10654:	53                   	push   %ebx
   10655:	e8 62 14 00 00       	call   11abc <__x86.get_pc_thunk.bx>
   1065a:	81 c3 16 23 00 00    	add    $0x2316,%ebx
   10660:	83 ec 0c             	sub    $0xc,%esp
   10663:	c7 c0 c8 31 01 00    	mov    $0x131c8,%eax
   10669:	8b 30                	mov    (%eax),%esi
   1066b:	56                   	push   %esi
   1066c:	e8 cf 0b 00 00       	call   11240 <list_del>
   10671:	89 f0                	mov    %esi,%eax
   10673:	8d 93 90 26 00 00    	lea    0x2690(%ebx),%edx
   10679:	83 c4 10             	add    $0x10,%esp
   1067c:	25 00 f0 ff ff       	and    $0xfffff000,%eax
   10681:	89 c1                	mov    %eax,%ecx
   10683:	c7 00 00 00 00 00    	movl   $0x0,(%eax)
   10689:	c7 80 f8 0f 00 00 00 	movl   $0x0,0xff8(%eax)
   10690:	00 00 00 
   10693:	29 d1                	sub    %edx,%ecx
   10695:	89 ca                	mov    %ecx,%edx
   10697:	81 e2 00 f0 ff ff    	and    $0xfffff000,%edx
   1069d:	81 c2 00 90 02 00    	add    $0x29000,%edx
   106a3:	89 50 04             	mov    %edx,0x4(%eax)
   106a6:	8d 93 f0 db ff ff    	lea    -0x2410(%ebx),%edx
   106ac:	89 90 fc 0f 00 00    	mov    %edx,0xffc(%eax)
   106b2:	8d 90 f8 0f 00 00    	lea    0xff8(%eax),%edx
   106b8:	89 50 10             	mov    %edx,0x10(%eax)
   106bb:	c7 c2 c4 31 01 00    	mov    $0x131c4,%edx
   106c1:	89 02                	mov    %eax,(%edx)
   106c3:	8d 65 f8             	lea    -0x8(%ebp),%esp
   106c6:	5b                   	pop    %ebx
   106c7:	5e                   	pop    %esi
   106c8:	5d                   	pop    %ebp
   106c9:	c3                   	ret    
   106ca:	8d b6 00 00 00 00    	lea    0x0(%esi),%esi

000106d0 <init_task1>:
   106d0:	55                   	push   %ebp
	   106d1:	89 e5                	mov    %esp,%ebp
   106d3:	57                   	push   %edi
   106d4:	56                   	push   %esi
   106d5:	53                   	push   %ebx
   106d6:	e8 e1 13 00 00       	call   11abc <__x86.get_pc_thunk.bx>
   106db:	81 c3 95 22 00 00    	add    $0x2295,%ebx
   106e1:	83 ec 18             	sub    $0x18,%esp
   106e4:	c7 c0 c8 31 01 00    	mov    $0x131c8,%eax
   106ea:	8b 30                	mov    (%eax),%esi
   106ec:	56                   	push   %esi
   106ed:	81 e6 00 f0 ff ff    	and    $0xfffff000,%esi
   106f3:	e8 48 0b 00 00       	call   11240 <list_del>
   106f8:	8d 83 90 26 00 00    	lea    0x2690(%ebx),%eax
   106fe:	89 f2                	mov    %esi,%edx
   10700:	c7 06 01 00 00 00    	movl   $0x1,(%esi)
   10706:	29 c2                	sub    %eax,%edx
   10708:	89 d0                	mov    %edx,%eax
   1070a:	25 00 f0 ff ff       	and    $0xfffff000,%eax
   1070f:	81 c0 00 90 02 00    	add    $0x29000,%eax
   10715:	89 46 04             	mov    %eax,0x4(%esi)
   10718:	89 c7                	mov    %eax,%edi
   1071a:	89 34 24             	mov    %esi,(%esp)
   1071d:	e8 3e 03 00 00       	call   10a60 <set_user_pages>
   10722:	c7 c0 00 42 01 00    	mov    $0x14200,%eax
   10728:	81 c6 00 10 00 00    	add    $0x1000,%esi
   1072e:	89 70 04             	mov    %esi,0x4(%eax)
   10731:	58                   	pop    %eax
   10732:	5a                   	pop    %edx
   10733:	68 75 01 00 00       	push   $0x175
   10738:	56                   	push   %esi
   10739:	e8 40 fc ff ff       	call   1037e <write_msr>
   1073e:	89 3c 24             	mov    %edi,(%esp)
   10741:	e8 ea 03 00 00       	call   10b30 <set_cr3>
   10746:	83 c4 10             	add    $0x10,%esp
   10749:	8d 65 f4             	lea    -0xc(%ebp),%esp
   1074c:	5b                   	pop    %ebx
   1074d:	5e                   	pop    %esi
   1074e:	5f                   	pop    %edi
   1074f:	5d                   	pop    %ebp
   10750:	c3                   	ret    
   10751:	eb 0d                	jmp    10760 <init_sched>
   10753:	90                   	nop
   10754:	90                   	nop
   10755:	90                   	nop
   10756:	90                   	nop
   10757:	90                   	nop
   10758:	90                   	nop
   10759:	90                   	nop
   1075a:	90                   	nop
   1075b:	90                   	nop
   1075c:	90                   	nop
   1075d:	90                   	nop
   1075e:	90                   	nop
   1075f:	90                   	nop

00010760 <init_sched>:
   10760:	55                   	push   %ebp
   10761:	89 e5                	mov    %esp,%ebp
   10763:	57                   	push   %edi
   10764:	56                   	push   %esi
   10765:	53                   	push   %ebx
   10766:	e8 51 13 00 00       	call   11abc <__x86.get_pc_thunk.bx>
   1076b:	81 c3 05 22 00 00    	add    $0x2205,%ebx
   10771:	83 ec 28             	sub    $0x28,%esp
   10774:	c7 c6 c8 31 01 00    	mov    $0x131c8,%esi
   1077a:	8d bb 98 26 00 00    	lea    0x2698(%ebx),%edi
   10780:	56                   	push   %esi
   10781:	e8 6a 0a 00 00       	call   111f0 <INIT_LIST_HEAD>
   10786:	58                   	pop    %eax
   10787:	ff b3 f8 ff ff ff    	pushl  -0x8(%ebx)
   1078d:	e8 5e 0a 00 00       	call   111f0 <INIT_LIST_HEAD>
   10792:	8d 83 98 c6 00 00    	lea    0xc698(%ebx),%eax
   10798:	83 c4 10             	add    $0x10,%esp
   1079b:	89 45 e4             	mov    %eax,-0x1c(%ebp)
   1079e:	66 90                	xchg   %ax,%ax
   107a0:	83 ec 08             	sub    $0x8,%esp
   107a3:	56                   	push   %esi
   107a4:	57                   	push   %edi
   107a5:	81 c7 00 10 00 00    	add    $0x1000,%edi
   107ab:	e8 50 0a 00 00       	call   11200 <list_add>
   107b0:	83 c4 10             	add    $0x10,%esp
   107b3:	3b 7d e4             	cmp    -0x1c(%ebp),%edi
   107b6:	75 e8                	jne    107a0 <init_sched+0x40>
   107b8:	8d 65 f4             	lea    -0xc(%ebp),%esp
   107bb:	5b                   	pop    %ebx
   107bc:	5e                   	pop    %esi
   107bd:	5f                   	pop    %edi
   107be:	5d                   	pop    %ebp
   107bf:	c3                   	ret    

000107c0 <current>:
   107c0:	55                   	push   %ebp
   107c1:	89 e5                	mov    %esp,%ebp
   107c3:	89 e0                	mov    %esp,%eax
   107c5:	25 00 f0 ff ff       	and    $0xfffff000,%eax
   107ca:	5d                   	pop    %ebp
   107cb:	c3                   	ret    
   107cc:	66 90                	xchg   %ax,%ax
   107ce:	66 90                	xchg   %ax,%ax

000107d0 <check_fd>:
   107d0:	55                   	push   %ebp
   107d1:	89 e5                	mov    %esp,%ebp
   107d3:	83 7d 08 01          	cmpl   $0x1,0x8(%ebp)
   107d7:	75 17                	jne    107f0 <check_fd+0x20>
   107d9:	83 7d 0c 01          	cmpl   $0x1,0xc(%ebp)
   107dd:	b8 f3 ff ff ff       	mov    $0xfffffff3,%eax
   107e2:	ba 00 00 00 00       	mov    $0x0,%edx
   107e7:	5d                   	pop    %ebp
   107e8:	0f 44 c2             	cmove  %edx,%eax
   107eb:	c3                   	ret    
   107ec:	8d 74 26 00          	lea    0x0(%esi,%eiz,1),%esi
   107f0:	b8 f7 ff ff ff       	mov    $0xfffffff7,%eax
   107f5:	5d                   	pop    %ebp
   107f6:	c3                   	ret    
   107f7:	89 f6                	mov    %esi,%esi
   107f9:	8d bc 27 00 00 00 00 	lea    0x0(%edi,%eiz,1),%edi

00010800 <sys_write>:
   10800:	55                   	push   %ebp
   10801:	89 e5                	mov    %esp,%ebp
   10803:	57                   	push   %edi
   10804:	56                   	push   %esi
   10805:	53                   	push   %ebx
   10806:	e8 b1 12 00 00       	call   11abc <__x86.get_pc_thunk.bx>
   1080b:	81 c3 65 21 00 00    	add    $0x2165,%ebx
   10811:	83 ec 1c             	sub    $0x1c,%esp
   10814:	8b 7d 10             	mov    0x10(%ebp),%edi
   10817:	8b 75 0c             	mov    0xc(%ebp),%esi
   1081a:	85 ff                	test   %edi,%edi
   1081c:	0f 9e c2             	setle  %dl
   1081f:	85 f6                	test   %esi,%esi
   10821:	0f 94 c0             	sete   %al
   10824:	08 c2                	or     %al,%dl
   10826:	75 78                	jne    108a0 <sys_write+0xa0>
   10828:	83 7d 08 01          	cmpl   $0x1,0x8(%ebp)
   1082c:	75 72                	jne    108a0 <sys_write+0xa0>
   1082e:	81 ff 00 10 00 00    	cmp    $0x1000,%edi
   10834:	7e 7a                	jle    108b0 <sys_write+0xb0>
   10836:	81 ef 01 10 00 00    	sub    $0x1001,%edi
   1083c:	81 e7 00 f0 ff ff    	and    $0xfffff000,%edi
   10842:	8d 84 3e 00 10 00 00 	lea    0x1000(%esi,%edi,1),%eax
   10849:	c7 c7 e0 31 01 00    	mov    $0x131e0,%edi
   1084f:	89 45 e0             	mov    %eax,-0x20(%ebp)
   10852:	8d b6 00 00 00 00    	lea    0x0(%esi),%esi
   10858:	83 ec 04             	sub    $0x4,%esp
   1085b:	68 00 10 00 00       	push   $0x1000
   10860:	57                   	push   %edi
   10861:	56                   	push   %esi
   10862:	e8 99 07 00 00       	call   11000 <copy_from_user>
   10867:	83 c4 10             	add    $0x10,%esp
   1086a:	85 c0                	test   %eax,%eax
   1086c:	89 45 e4             	mov    %eax,-0x1c(%ebp)
   1086f:	75 2f                	jne    108a0 <sys_write+0xa0>
   10871:	83 ec 08             	sub    $0x8,%esp
   10874:	68 00 10 00 00       	push   $0x1000
   10879:	57                   	push   %edi
   1087a:	e8 c1 06 00 00       	call   10f40 <sys_write_console>
   1087f:	83 c4 10             	add    $0x10,%esp
   10882:	85 c0                	test   %eax,%eax
   10884:	7e 1a                	jle    108a0 <sys_write+0xa0>
   10886:	81 c6 00 10 00 00    	add    $0x1000,%esi
   1088c:	3b 75 e0             	cmp    -0x20(%ebp),%esi
   1088f:	8b 55 e4             	mov    -0x1c(%ebp),%edx
   10892:	75 c4                	jne    10858 <sys_write+0x58>
   10894:	8d 65 f4             	lea    -0xc(%ebp),%esp
   10897:	89 d0                	mov    %edx,%eax
   10899:	5b                   	pop    %ebx
   1089a:	5e                   	pop    %esi
   1089b:	5f                   	pop    %edi
   1089c:	5d                   	pop    %ebp
   1089d:	c3                   	ret    
   1089e:	66 90                	xchg   %ax,%ax
   108a0:	8d 65 f4             	lea    -0xc(%ebp),%esp
   108a3:	ba ff ff ff ff       	mov    $0xffffffff,%edx
   108a8:	89 d0                	mov    %edx,%eax
   108aa:	5b                   	pop    %ebx
   108ab:	5e                   	pop    %esi
   108ac:	5f                   	pop    %edi
   108ad:	5d                   	pop    %ebp
   108ae:	c3                   	ret    
   108af:	90                   	nop
   108b0:	c7 c2 e0 31 01 00    	mov    $0x131e0,%edx
   108b6:	83 ec 04             	sub    $0x4,%esp
   108b9:	68 00 10 00 00       	push   $0x1000
   108be:	52                   	push   %edx
   108bf:	56                   	push   %esi
   108c0:	89 55 e4             	mov    %edx,-0x1c(%ebp)
   108c3:	e8 38 07 00 00       	call   11000 <copy_from_user>
   108c8:	83 c4 10             	add    $0x10,%esp
   108cb:	85 c0                	test   %eax,%eax
   108cd:	75 d1                	jne    108a0 <sys_write+0xa0>
   108cf:	8b 55 e4             	mov    -0x1c(%ebp),%edx
   108d2:	83 ec 08             	sub    $0x8,%esp
   108d5:	57                   	push   %edi
   108d6:	52                   	push   %edx
   108d7:	e8 64 06 00 00       	call   10f40 <sys_write_console>
   108dc:	83 c4 10             	add    $0x10,%esp
   108df:	31 d2                	xor    %edx,%edx
   108e1:	85 c0                	test   %eax,%eax
   108e3:	0f 9e c2             	setle  %dl
   108e6:	8d 65 f4             	lea    -0xc(%ebp),%esp
   108e9:	f7 da                	neg    %edx
   108eb:	5b                   	pop    %ebx
   108ec:	89 d0                	mov    %edx,%eax
   108ee:	5e                   	pop    %esi
   108ef:	5f                   	pop    %edi
   108f0:	5d                   	pop    %ebp
   108f1:	c3                   	ret    
   108f2:	8d b4 26 00 00 00 00 	lea    0x0(%esi,%eiz,1),%esi
   108f9:	8d bc 27 00 00 00 00 	lea    0x0(%edi,%eiz,1),%edi

00010900 <sys_gettime>:
   10900:	e8 c3 11 00 00       	call   11ac8 <__x86.get_pc_thunk.ax>
   10905:	05 6b 20 00 00       	add    $0x206b,%eax
   1090a:	55                   	push   %ebp
   1090b:	c7 c0 80 29 01 00    	mov    $0x12980,%eax
   10911:	89 e5                	mov    %esp,%ebp
   10913:	5d                   	pop    %ebp
   10914:	8b 00                	mov    (%eax),%eax
   10916:	c3                   	ret    
   10917:	89 f6                	mov    %esi,%esi
   10919:	8d bc 27 00 00 00 00 	lea    0x0(%edi,%eiz,1),%edi

00010920 <sys_ni_syscall>:
   10920:	55                   	push   %ebp
   10921:	b8 da ff ff ff       	mov    $0xffffffda,%eax
   10926:	89 e5                	mov    %esp,%ebp
   10928:	5d                   	pop    %ebp
   10929:	c3                   	ret    
   1092a:	8d b6 00 00 00 00    	lea    0x0(%esi),%esi

00010930 <sys_getpid>:
   10930:	55                   	push   %ebp
   10931:	89 e5                	mov    %esp,%ebp
   10933:	53                   	push   %ebx
   10934:	e8 83 11 00 00       	call   11abc <__x86.get_pc_thunk.bx>
   10939:	81 c3 37 20 00 00    	add    $0x2037,%ebx
   1093f:	83 ec 04             	sub    $0x4,%esp
   10942:	e8 79 fe ff ff       	call   107c0 <current>
   10947:	8b 00                	mov    (%eax),%eax
   10949:	83 c4 04             	add    $0x4,%esp
   1094c:	5b                   	pop    %ebx
   1094d:	5d                   	pop    %ebp
   1094e:	c3                   	ret    
   1094f:	90                   	nop

00010950 <sys_fork>:
   10950:	55                   	push   %ebp
   10951:	b8 ff ff ff ff       	mov    $0xffffffff,%eax
   10956:	89 e5                	mov    %esp,%ebp
   10958:	5d                   	pop    %ebp
   10959:	c3                   	ret    
   1095a:	8d b6 00 00 00 00    	lea    0x0(%esi),%esi

00010960 <sys_exit>:
   10960:	55                   	push   %ebp
   10961:	89 e5                	mov    %esp,%ebp
   10963:	5d                   	pop    %ebp
   10964:	c3                   	ret    
   10965:	66 90                	xchg   %ax,%ax
   10967:	66 90                	xchg   %ax,%ax
   10969:	66 90                	xchg   %ax,%ax
   1096b:	66 90                	xchg   %ax,%ax
   1096d:	66 90                	xchg   %ax,%ax
   1096f:	90                   	nop

00010970 <init_dir_pages>:
   10970:	55                   	push   %ebp
   10971:	31 d2                	xor    %edx,%edx
   10973:	e8 50 11 00 00       	call   11ac8 <__x86.get_pc_thunk.ax>
   10978:	05 f8 1f 00 00       	add    $0x1ff8,%eax
   1097d:	89 e5                	mov    %esp,%ebp
   1097f:	56                   	push   %esi
   10980:	53                   	push   %ebx
   10981:	8d 88 90 c6 00 00    	lea    0xc690(%eax),%ecx
   10987:	8d b0 90 66 01 00    	lea    0x16690(%eax),%esi
   1098d:	8d 76 00             	lea    0x0(%esi),%esi
   10990:	89 d0                	mov    %edx,%eax
   10992:	89 cb                	mov    %ecx,%ebx
   10994:	83 c2 01             	add    $0x1,%edx
   10997:	c1 e0 0c             	shl    $0xc,%eax
   1099a:	81 e3 00 f0 ff ff    	and    $0xfffff000,%ebx
   109a0:	81 c1 00 10 00 00    	add    $0x1000,%ecx
   109a6:	01 f0                	add    %esi,%eax
   109a8:	83 fa 0a             	cmp    $0xa,%edx
   109ab:	89 18                	mov    %ebx,(%eax)
   109ad:	c6 00 07             	movb   $0x7,(%eax)
   109b0:	75 de                	jne    10990 <init_dir_pages+0x20>
   109b2:	5b                   	pop    %ebx
   109b3:	5e                   	pop    %esi
   109b4:	5d                   	pop    %ebp
   109b5:	c3                   	ret    
   109b6:	8d 76 00             	lea    0x0(%esi),%esi
   109b9:	8d bc 27 00 00 00 00 	lea    0x0(%edi,%eiz,1),%edi

000109c0 <init_table_pages>:
   109c0:	55                   	push   %ebp
   109c1:	89 e5                	mov    %esp,%ebp
   109c3:	57                   	push   %edi
   109c4:	56                   	push   %esi
   109c5:	e8 02 11 00 00       	call   11acc <__x86.get_pc_thunk.di>
   109ca:	81 c7 a6 1f 00 00    	add    $0x1fa6,%edi
   109d0:	53                   	push   %ebx
   109d1:	8d 9f 90 c6 00 00    	lea    0xc690(%edi),%ebx
   109d7:	83 ec 08             	sub    $0x8,%esp
   109da:	c7 45 f0 00 00 00 00 	movl   $0x0,-0x10(%ebp)
   109e1:	8d b4 26 00 00 00 00 	lea    0x0(%esi,%eiz,1),%esi
   109e8:	8d 83 00 10 00 00    	lea    0x1000(%ebx),%eax
   109ee:	66 90                	xchg   %ax,%ax
   109f0:	c7 03 00 00 00 00    	movl   $0x0,(%ebx)
   109f6:	83 c3 04             	add    $0x4,%ebx
   109f9:	39 c3                	cmp    %eax,%ebx
   109fb:	75 f3                	jne    109f0 <init_table_pages+0x30>
   109fd:	8b 75 f0             	mov    -0x10(%ebp),%esi
   10a00:	b9 01 00 00 00       	mov    $0x1,%ecx
   10a05:	89 5d ec             	mov    %ebx,-0x14(%ebp)
   10a08:	c1 e6 0a             	shl    $0xa,%esi
   10a0b:	90                   	nop
   10a0c:	8d 74 26 00          	lea    0x0(%esi,%eiz,1),%esi
   10a10:	8d 14 0e             	lea    (%esi,%ecx,1),%edx
   10a13:	89 cb                	mov    %ecx,%ebx
   10a15:	83 c1 01             	add    $0x1,%ecx
   10a18:	c1 e3 0c             	shl    $0xc,%ebx
   10a1b:	8b 84 97 90 c6 00 00 	mov    0xc690(%edi,%edx,4),%eax
   10a22:	25 ff 0f 00 00       	and    $0xfff,%eax
   10a27:	09 d8                	or     %ebx,%eax
   10a29:	89 84 97 90 c6 00 00 	mov    %eax,0xc690(%edi,%edx,4)
   10a30:	83 c8 03             	or     $0x3,%eax
   10a33:	81 f9 00 01 00 00    	cmp    $0x100,%ecx
   10a39:	88 84 97 90 c6 00 00 	mov    %al,0xc690(%edi,%edx,4)
   10a40:	75 ce                	jne    10a10 <init_table_pages+0x50>
   10a42:	83 45 f0 01          	addl   $0x1,-0x10(%ebp)
   10a46:	8b 5d ec             	mov    -0x14(%ebp),%ebx
   10a49:	8b 45 f0             	mov    -0x10(%ebp),%eax
   10a4c:	83 f8 0a             	cmp    $0xa,%eax
   10a4f:	75 97                	jne    109e8 <init_table_pages+0x28>
   10a51:	83 c4 08             	add    $0x8,%esp
   10a54:	5b                   	pop    %ebx
   10a55:	5e                   	pop    %esi
   10a56:	5f                   	pop    %edi
   10a57:	5d                   	pop    %ebp
   10a58:	c3                   	ret    
   10a59:	8d b4 26 00 00 00 00 	lea    0x0(%esi,%eiz,1),%esi

00010a60 <set_user_pages>:
   10a60:	55                   	push   %ebp
   10a61:	89 e5                	mov    %esp,%ebp
   10a63:	57                   	push   %edi
   10a64:	56                   	push   %esi
   10a65:	53                   	push   %ebx
   10a66:	e8 51 10 00 00       	call   11abc <__x86.get_pc_thunk.bx>
   10a6b:	81 c3 05 1f 00 00    	add    $0x1f05,%ebx
   10a71:	83 ec 18             	sub    $0x18,%esp
   10a74:	ff 75 08             	pushl  0x8(%ebp)
   10a77:	e8 14 fb ff ff       	call   10590 <get_PT>
   10a7c:	c7 c1 80 42 01 00    	mov    $0x14280,%ecx
   10a82:	8d b0 00 04 00 00    	lea    0x400(%eax),%esi
   10a88:	8d b8 20 04 00 00    	lea    0x420(%eax),%edi
   10a8e:	83 c4 10             	add    $0x10,%esp
   10a91:	8d b4 26 00 00 00 00 	lea    0x0(%esi,%eiz,1),%esi
   10a98:	ba 00 01 00 00       	mov    $0x100,%edx
   10a9d:	eb 0c                	jmp    10aab <set_user_pages+0x4b>
   10a9f:	90                   	nop
   10aa0:	83 c2 02             	add    $0x2,%edx
   10aa3:	81 fa 00 04 00 00    	cmp    $0x400,%edx
   10aa9:	74 74                	je     10b1f <set_user_pages+0xbf>
   10aab:	80 3c 0a 00          	cmpb   $0x0,(%edx,%ecx,1)
   10aaf:	75 ef                	jne    10aa0 <set_user_pages+0x40>
   10ab1:	c6 04 11 01          	movb   $0x1,(%ecx,%edx,1)
   10ab5:	81 e2 ff ff 0f 00    	and    $0xfffff,%edx
   10abb:	c1 e2 0c             	shl    $0xc,%edx
   10abe:	83 c6 04             	add    $0x4,%esi
   10ac1:	89 56 fc             	mov    %edx,-0x4(%esi)
   10ac4:	c6 46 fc 05          	movb   $0x5,-0x4(%esi)
   10ac8:	39 fe                	cmp    %edi,%esi
   10aca:	75 cc                	jne    10a98 <set_user_pages+0x38>
   10acc:	8d 90 70 04 00 00    	lea    0x470(%eax),%edx
   10ad2:	8d b6 00 00 00 00    	lea    0x0(%esi),%esi
   10ad8:	b8 00 01 00 00       	mov    $0x100,%eax
   10add:	eb 0b                	jmp    10aea <set_user_pages+0x8a>
   10adf:	90                   	nop
   10ae0:	83 c0 02             	add    $0x2,%eax
   10ae3:	3d 00 04 00 00       	cmp    $0x400,%eax
   10ae8:	74 2e                	je     10b18 <set_user_pages+0xb8>
   10aea:	80 3c 08 00          	cmpb   $0x0,(%eax,%ecx,1)
   10aee:	75 f0                	jne    10ae0 <set_user_pages+0x80>
   10af0:	c6 04 01 01          	movb   $0x1,(%ecx,%eax,1)
   10af4:	25 ff ff 0f 00       	and    $0xfffff,%eax
   10af9:	c1 e0 0c             	shl    $0xc,%eax
   10afc:	83 c6 04             	add    $0x4,%esi
   10aff:	89 46 fc             	mov    %eax,-0x4(%esi)
   10b02:	c6 46 fc 07          	movb   $0x7,-0x4(%esi)
   10b06:	39 f2                	cmp    %esi,%edx
   10b08:	75 ce                	jne    10ad8 <set_user_pages+0x78>
   10b0a:	8d 65 f4             	lea    -0xc(%ebp),%esp
   10b0d:	5b                   	pop    %ebx
   10b0e:	5e                   	pop    %esi
   10b0f:	5f                   	pop    %edi
   10b10:	5d                   	pop    %ebp
   10b11:	c3                   	ret    
   10b12:	8d b6 00 00 00 00    	lea    0x0(%esi),%esi
   10b18:	b8 ff ff 0f 00       	mov    $0xfffff,%eax
   10b1d:	eb da                	jmp    10af9 <set_user_pages+0x99>
   10b1f:	ba ff ff 0f 00       	mov    $0xfffff,%edx
   10b24:	eb 95                	jmp    10abb <set_user_pages+0x5b>
   10b26:	8d 76 00             	lea    0x0(%esi),%esi
   10b29:	8d bc 27 00 00 00 00 	lea    0x0(%edi,%eiz,1),%edi

00010b30 <set_cr3>:
   10b30:	55                   	push   %ebp
   10b31:	89 e5                	mov    %esp,%ebp
   10b33:	8b 45 08             	mov    0x8(%ebp),%eax
   10b36:	0f 22 d8             	mov    %eax,%cr3
   10b39:	5d                   	pop    %ebp
   10b3a:	c3                   	ret    
   10b3b:	90                   	nop
   10b3c:	8d 74 26 00          	lea    0x0(%esi,%eiz,1),%esi

00010b40 <set_pe_flag>:
   10b40:	55                   	push   %ebp
   10b41:	0f 20 c0             	mov    %cr0,%eax
   10b44:	89 e5                	mov    %esp,%ebp
   10b46:	0d 00 00 00 80       	or     $0x80000000,%eax
   10b4b:	0f 22 c0             	mov    %eax,%cr0
   10b4e:	5d                   	pop    %ebp
   10b4f:	c3                   	ret    

00010b50 <init_mm>:
   10b50:	55                   	push   %ebp
   10b51:	89 e5                	mov    %esp,%ebp
   10b53:	57                   	push   %edi
   10b54:	56                   	push   %esi
   10b55:	e8 72 0f 00 00       	call   11acc <__x86.get_pc_thunk.di>
   10b5a:	81 c7 16 1e 00 00    	add    $0x1e16,%edi
   10b60:	53                   	push   %ebx
   10b61:	8d 87 90 c6 00 00    	lea    0xc690(%edi),%eax
   10b67:	83 ec 1c             	sub    $0x1c,%esp
   10b6a:	c7 45 e4 00 00 00 00 	movl   $0x0,-0x1c(%ebp)
   10b71:	89 45 dc             	mov    %eax,-0x24(%ebp)
   10b74:	89 c3                	mov    %eax,%ebx
   10b76:	8d 76 00             	lea    0x0(%esi),%esi
   10b79:	8d bc 27 00 00 00 00 	lea    0x0(%edi,%eiz,1),%edi
   10b80:	8d 83 00 10 00 00    	lea    0x1000(%ebx),%eax
   10b86:	8d 76 00             	lea    0x0(%esi),%esi
   10b89:	8d bc 27 00 00 00 00 	lea    0x0(%edi,%eiz,1),%edi
   10b90:	c7 03 00 00 00 00    	movl   $0x0,(%ebx)
   10b96:	83 c3 04             	add    $0x4,%ebx
   10b99:	39 c3                	cmp    %eax,%ebx
   10b9b:	75 f3                	jne    10b90 <init_mm+0x40>
   10b9d:	8b 75 e4             	mov    -0x1c(%ebp),%esi
   10ba0:	b9 01 00 00 00       	mov    $0x1,%ecx
   10ba5:	89 5d e0             	mov    %ebx,-0x20(%ebp)
   10ba8:	c1 e6 0a             	shl    $0xa,%esi
   10bab:	90                   	nop
   10bac:	8d 74 26 00          	lea    0x0(%esi,%eiz,1),%esi
   10bb0:	8d 14 0e             	lea    (%esi,%ecx,1),%edx
   10bb3:	89 cb                	mov    %ecx,%ebx
   10bb5:	83 c1 01             	add    $0x1,%ecx
   10bb8:	c1 e3 0c             	shl    $0xc,%ebx
   10bbb:	8b 84 97 90 c6 00 00 	mov    0xc690(%edi,%edx,4),%eax
   10bc2:	25 ff 0f 00 00       	and    $0xfff,%eax
   10bc7:	09 d8                	or     %ebx,%eax
   10bc9:	89 84 97 90 c6 00 00 	mov    %eax,0xc690(%edi,%edx,4)
   10bd0:	83 c8 03             	or     $0x3,%eax
   10bd3:	81 f9 00 01 00 00    	cmp    $0x100,%ecx
   10bd9:	88 84 97 90 c6 00 00 	mov    %al,0xc690(%edi,%edx,4)
   10be0:	75 ce                	jne    10bb0 <init_mm+0x60>
   10be2:	83 45 e4 01          	addl   $0x1,-0x1c(%ebp)
   10be6:	8b 5d e0             	mov    -0x20(%ebp),%ebx
   10be9:	8b 45 e4             	mov    -0x1c(%ebp),%eax
   10bec:	83 f8 0a             	cmp    $0xa,%eax
   10bef:	75 8f                	jne    10b80 <init_mm+0x30>
   10bf1:	c7 c0 80 42 01 00    	mov    $0x14280,%eax
   10bf7:	8d 88 00 04 00 00    	lea    0x400(%eax),%ecx
   10bfd:	89 c2                	mov    %eax,%edx
   10bff:	90                   	nop
   10c00:	c6 02 00             	movb   $0x0,(%edx)
   10c03:	83 c2 01             	add    $0x1,%edx
   10c06:	39 ca                	cmp    %ecx,%edx
   10c08:	75 f6                	jne    10c00 <init_mm+0xb0>
   10c0a:	8d 90 00 01 00 00    	lea    0x100(%eax),%edx
   10c10:	c6 00 01             	movb   $0x1,(%eax)
   10c13:	83 c0 01             	add    $0x1,%eax
   10c16:	39 d0                	cmp    %edx,%eax
   10c18:	75 f6                	jne    10c10 <init_mm+0xc0>
   10c1a:	8b 5d dc             	mov    -0x24(%ebp),%ebx
   10c1d:	8d 8f 90 66 01 00    	lea    0x16690(%edi),%ecx
   10c23:	31 d2                	xor    %edx,%edx
   10c25:	8d 76 00             	lea    0x0(%esi),%esi
   10c28:	89 d0                	mov    %edx,%eax
   10c2a:	89 de                	mov    %ebx,%esi
   10c2c:	83 c2 01             	add    $0x1,%edx
   10c2f:	c1 e0 0c             	shl    $0xc,%eax
   10c32:	81 e6 00 f0 ff ff    	and    $0xfffff000,%esi
   10c38:	81 c3 00 10 00 00    	add    $0x1000,%ebx
   10c3e:	01 c8                	add    %ecx,%eax
   10c40:	83 fa 0a             	cmp    $0xa,%edx
   10c43:	89 30                	mov    %esi,(%eax)
   10c45:	c6 00 07             	movb   $0x7,(%eax)
   10c48:	75 de                	jne    10c28 <init_mm+0xd8>
   10c4a:	c7 c6 00 50 01 00    	mov    $0x15000,%esi
   10c50:	83 ec 0c             	sub    $0xc,%esp
   10c53:	89 fb                	mov    %edi,%ebx
   10c55:	56                   	push   %esi
   10c56:	e8 55 f9 ff ff       	call   105b0 <allocate_DIR>
   10c5b:	89 34 24             	mov    %esi,(%esp)
   10c5e:	e8 1d f9 ff ff       	call   10580 <get_DIR>
   10c63:	0f 22 d8             	mov    %eax,%cr3
   10c66:	0f 20 c0             	mov    %cr0,%eax
   10c69:	0d 00 00 00 80       	or     $0x80000000,%eax
   10c6e:	0f 22 c0             	mov    %eax,%cr0
   10c71:	83 c4 10             	add    $0x10,%esp
   10c74:	8d 65 f4             	lea    -0xc(%ebp),%esp
   10c77:	5b                   	pop    %ebx
   10c78:	5e                   	pop    %esi
   10c79:	5f                   	pop    %edi
   10c7a:	5d                   	pop    %ebp
   10c7b:	c3                   	ret    
   10c7c:	8d 74 26 00          	lea    0x0(%esi,%eiz,1),%esi

00010c80 <setGdt>:
   10c80:	55                   	push   %ebp
   10c81:	89 e5                	mov    %esp,%ebp
   10c83:	53                   	push   %ebx
   10c84:	e8 33 0e 00 00       	call   11abc <__x86.get_pc_thunk.bx>
   10c89:	81 c3 e7 1c 00 00    	add    $0x1ce7,%ebx
   10c8f:	83 ec 10             	sub    $0x10,%esp
   10c92:	8b 93 f4 ff ff ff    	mov    -0xc(%ebx),%edx
   10c98:	c7 c0 00 42 01 00    	mov    $0x14200,%eax
   10c9e:	66 89 42 32          	mov    %ax,0x32(%edx)
   10ca2:	89 c1                	mov    %eax,%ecx
   10ca4:	c1 e8 18             	shr    $0x18,%eax
   10ca7:	88 42 37             	mov    %al,0x37(%edx)
   10caa:	c7 c0 e0 41 01 00    	mov    $0x141e0,%eax
   10cb0:	c1 e9 10             	shr    $0x10,%ecx
   10cb3:	88 4a 34             	mov    %cl,0x34(%edx)
   10cb6:	89 50 02             	mov    %edx,0x2(%eax)
   10cb9:	ba 00 08 00 00       	mov    $0x800,%edx
   10cbe:	66 89 10             	mov    %dx,(%eax)
   10cc1:	50                   	push   %eax
   10cc2:	e8 89 04 00 00       	call   11150 <set_gdt_reg>
   10cc7:	83 c4 10             	add    $0x10,%esp
   10cca:	8b 5d fc             	mov    -0x4(%ebp),%ebx
   10ccd:	c9                   	leave  
   10cce:	c3                   	ret    
   10ccf:	90                   	nop

00010cd0 <setTSS>:
   10cd0:	55                   	push   %ebp
   10cd1:	31 d2                	xor    %edx,%edx
   10cd3:	b9 18 00 00 00       	mov    $0x18,%ecx
   10cd8:	89 e5                	mov    %esp,%ebp
   10cda:	53                   	push   %ebx
   10cdb:	e8 dc 0d 00 00       	call   11abc <__x86.get_pc_thunk.bx>
   10ce0:	81 c3 90 1c 00 00    	add    $0x1c90,%ebx
   10ce6:	83 ec 10             	sub    $0x10,%esp
   10ce9:	c7 c0 00 42 01 00    	mov    $0x14200,%eax
   10cef:	66 89 10             	mov    %dx,(%eax)
   10cf2:	c7 c2 00 50 01 00    	mov    $0x15000,%edx
   10cf8:	66 89 48 08          	mov    %cx,0x8(%eax)
   10cfc:	31 c9                	xor    %ecx,%ecx
   10cfe:	c7 40 0c 00 00 00 00 	movl   $0x0,0xc(%eax)
   10d05:	66 89 48 18          	mov    %cx,0x18(%eax)
   10d09:	b9 23 00 00 00       	mov    $0x23,%ecx
   10d0e:	c7 40 14 00 00 00 00 	movl   $0x0,0x14(%eax)
   10d15:	81 c2 00 20 00 00    	add    $0x2000,%edx
   10d1b:	66 89 48 4c          	mov    %cx,0x4c(%eax)
   10d1f:	b9 2b 00 00 00       	mov    $0x2b,%ecx
   10d24:	89 50 04             	mov    %edx,0x4(%eax)
   10d27:	31 d2                	xor    %edx,%edx
   10d29:	66 89 48 54          	mov    %cx,0x54(%eax)
   10d2d:	66 89 50 10          	mov    %dx,0x10(%eax)
   10d31:	ba 2b 00 00 00       	mov    $0x2b,%edx
   10d36:	31 c9                	xor    %ecx,%ecx
   10d38:	66 89 50 48          	mov    %dx,0x48(%eax)
   10d3c:	ba 2b 00 00 00       	mov    $0x2b,%edx
   10d41:	c7 40 1c 00 00 00 00 	movl   $0x0,0x1c(%eax)
   10d48:	66 89 50 50          	mov    %dx,0x50(%eax)
   10d4c:	31 d2                	xor    %edx,%edx
   10d4e:	c7 40 20 00 00 00 00 	movl   $0x0,0x20(%eax)
   10d55:	66 89 50 58          	mov    %dx,0x58(%eax)
   10d59:	ba 30 00 00 00       	mov    $0x30,%edx
   10d5e:	c7 40 24 00 02 00 00 	movl   $0x200,0x24(%eax)
   10d65:	c7 40 28 00 00 00 00 	movl   $0x0,0x28(%eax)
   10d6c:	c7 40 2c 00 00 00 00 	movl   $0x0,0x2c(%eax)
   10d73:	c7 40 30 00 00 00 00 	movl   $0x0,0x30(%eax)
   10d7a:	c7 40 34 00 00 00 00 	movl   $0x0,0x34(%eax)
   10d81:	c7 40 38 f0 bf 11 00 	movl   $0x11bff0,0x38(%eax)
   10d88:	c7 40 3c f0 bf 11 00 	movl   $0x11bff0,0x3c(%eax)
   10d8f:	c7 40 40 00 00 00 00 	movl   $0x0,0x40(%eax)
   10d96:	c7 40 44 00 00 00 00 	movl   $0x0,0x44(%eax)
   10d9d:	66 89 48 5c          	mov    %cx,0x5c(%eax)
   10da1:	66 89 50 60          	mov    %dx,0x60(%eax)
   10da5:	c7 40 64 00 00 00 00 	movl   $0x0,0x64(%eax)
   10dac:	6a 30                	push   $0x30
   10dae:	e8 bd 03 00 00       	call   11170 <set_task_reg>
   10db3:	83 c4 10             	add    $0x10,%esp
   10db6:	8b 5d fc             	mov    -0x4(%ebp),%ebx
   10db9:	c9                   	leave  
   10dba:	c3                   	ret    
   10dbb:	90                   	nop
   10dbc:	8d 74 26 00          	lea    0x0(%esi,%eiz,1),%esi

00010dc0 <init_frames>:
   10dc0:	e8 03 0d 00 00       	call   11ac8 <__x86.get_pc_thunk.ax>
   10dc5:	05 ab 1b 00 00       	add    $0x1bab,%eax
   10dca:	55                   	push   %ebp
   10dcb:	c7 c0 80 42 01 00    	mov    $0x14280,%eax
   10dd1:	89 e5                	mov    %esp,%ebp
   10dd3:	8d 88 00 04 00 00    	lea    0x400(%eax),%ecx
   10dd9:	89 c2                	mov    %eax,%edx
   10ddb:	90                   	nop
   10ddc:	8d 74 26 00          	lea    0x0(%esi,%eiz,1),%esi
   10de0:	c6 02 00             	movb   $0x0,(%edx)
   10de3:	83 c2 01             	add    $0x1,%edx
   10de6:	39 ca                	cmp    %ecx,%edx
   10de8:	75 f6                	jne    10de0 <init_frames+0x20>
   10dea:	8d 90 00 01 00 00    	lea    0x100(%eax),%edx
   10df0:	c6 00 01             	movb   $0x1,(%eax)
   10df3:	83 c0 01             	add    $0x1,%eax
   10df6:	39 c2                	cmp    %eax,%edx
   10df8:	75 f6                	jne    10df0 <init_frames+0x30>
   10dfa:	31 c0                	xor    %eax,%eax
   10dfc:	5d                   	pop    %ebp
   10dfd:	c3                   	ret    
   10dfe:	66 90                	xchg   %ax,%ax

00010e00 <alloc_frame>:
   10e00:	55                   	push   %ebp
   10e01:	b8 00 01 00 00       	mov    $0x100,%eax
   10e06:	e8 b5 0c 00 00       	call   11ac0 <__x86.get_pc_thunk.dx>
   10e0b:	81 c2 65 1b 00 00    	add    $0x1b65,%edx
   10e11:	89 e5                	mov    %esp,%ebp
   10e13:	c7 c2 80 42 01 00    	mov    $0x14280,%edx
   10e19:	eb 0f                	jmp    10e2a <alloc_frame+0x2a>
   10e1b:	90                   	nop
   10e1c:	8d 74 26 00          	lea    0x0(%esi,%eiz,1),%esi
   10e20:	83 c0 02             	add    $0x2,%eax
   10e23:	3d 00 04 00 00       	cmp    $0x400,%eax
   10e28:	74 16                	je     10e40 <alloc_frame+0x40>
   10e2a:	80 3c 10 00          	cmpb   $0x0,(%eax,%edx,1)
   10e2e:	75 f0                	jne    10e20 <alloc_frame+0x20>
   10e30:	c6 04 02 01          	movb   $0x1,(%edx,%eax,1)
   10e34:	5d                   	pop    %ebp
   10e35:	c3                   	ret    
   10e36:	8d 76 00             	lea    0x0(%esi),%esi
   10e39:	8d bc 27 00 00 00 00 	lea    0x0(%edi,%eiz,1),%edi
   10e40:	b8 ff ff ff ff       	mov    $0xffffffff,%eax
   10e45:	5d                   	pop    %ebp
   10e46:	c3                   	ret    
   10e47:	89 f6                	mov    %esi,%esi
   10e49:	8d bc 27 00 00 00 00 	lea    0x0(%edi,%eiz,1),%edi

00010e50 <free_user_pages>:
   10e50:	55                   	push   %ebp
   10e51:	89 e5                	mov    %esp,%ebp
   10e53:	56                   	push   %esi
   10e54:	53                   	push   %ebx
   10e55:	e8 62 0c 00 00       	call   11abc <__x86.get_pc_thunk.bx>
   10e5a:	81 c3 16 1b 00 00    	add    $0x1b16,%ebx
   10e60:	83 ec 0c             	sub    $0xc,%esp
   10e63:	ff 75 08             	pushl  0x8(%ebp)
   10e66:	e8 25 f7 ff ff       	call   10590 <get_PT>
   10e6b:	c7 c3 80 42 01 00    	mov    $0x14280,%ebx
   10e71:	8d 90 20 04 00 00    	lea    0x420(%eax),%edx
   10e77:	8d b0 70 04 00 00    	lea    0x470(%eax),%esi
   10e7d:	83 c4 10             	add    $0x10,%esp
   10e80:	8b 0a                	mov    (%edx),%ecx
   10e82:	c1 e9 0c             	shr    $0xc,%ecx
   10e85:	8d 81 ff fe ff ff    	lea    -0x101(%ecx),%eax
   10e8b:	3d fe 02 00 00       	cmp    $0x2fe,%eax
   10e90:	77 04                	ja     10e96 <free_user_pages+0x46>
   10e92:	c6 04 0b 00          	movb   $0x0,(%ebx,%ecx,1)
   10e96:	c7 02 00 00 00 00    	movl   $0x0,(%edx)
   10e9c:	83 c2 04             	add    $0x4,%edx
   10e9f:	39 d6                	cmp    %edx,%esi
   10ea1:	75 dd                	jne    10e80 <free_user_pages+0x30>
   10ea3:	8d 65 f8             	lea    -0x8(%ebp),%esp
   10ea6:	5b                   	pop    %ebx
   10ea7:	5e                   	pop    %esi
   10ea8:	5d                   	pop    %ebp
   10ea9:	c3                   	ret    
   10eaa:	8d b6 00 00 00 00    	lea    0x0(%esi),%esi

00010eb0 <free_frame>:
   10eb0:	55                   	push   %ebp
   10eb1:	e8 0e 0c 00 00       	call   11ac4 <__x86.get_pc_thunk.cx>
   10eb6:	81 c1 ba 1a 00 00    	add    $0x1aba,%ecx
   10ebc:	89 e5                	mov    %esp,%ebp
   10ebe:	8b 45 08             	mov    0x8(%ebp),%eax
   10ec1:	8d 90 ff fe ff ff    	lea    -0x101(%eax),%edx
   10ec7:	81 fa fe 02 00 00    	cmp    $0x2fe,%edx
   10ecd:	77 0a                	ja     10ed9 <free_frame+0x29>
   10ecf:	c7 c2 80 42 01 00    	mov    $0x14280,%edx
   10ed5:	c6 04 02 00          	movb   $0x0,(%edx,%eax,1)
   10ed9:	5d                   	pop    %ebp
   10eda:	c3                   	ret    
   10edb:	90                   	nop
   10edc:	8d 74 26 00          	lea    0x0(%esi,%eiz,1),%esi

00010ee0 <set_ss_pag>:
   10ee0:	55                   	push   %ebp
   10ee1:	89 e5                	mov    %esp,%ebp
   10ee3:	8b 55 08             	mov    0x8(%ebp),%edx
   10ee6:	8b 45 0c             	mov    0xc(%ebp),%eax
   10ee9:	8d 04 82             	lea    (%edx,%eax,4),%eax
   10eec:	8b 55 10             	mov    0x10(%ebp),%edx
   10eef:	c1 e2 0c             	shl    $0xc,%edx
   10ef2:	89 10                	mov    %edx,(%eax)
   10ef4:	c6 00 07             	movb   $0x7,(%eax)
   10ef7:	5d                   	pop    %ebp
   10ef8:	c3                   	ret    
   10ef9:	8d b4 26 00 00 00 00 	lea    0x0(%esi,%eiz,1),%esi

00010f00 <del_ss_pag>:
   10f00:	55                   	push   %ebp
   10f01:	89 e5                	mov    %esp,%ebp
   10f03:	8b 45 08             	mov    0x8(%ebp),%eax
   10f06:	8b 55 0c             	mov    0xc(%ebp),%edx
   10f09:	c7 04 90 00 00 00 00 	movl   $0x0,(%eax,%edx,4)
   10f10:	5d                   	pop    %ebp
   10f11:	c3                   	ret    
   10f12:	8d b4 26 00 00 00 00 	lea    0x0(%esi,%eiz,1),%esi
   10f19:	8d bc 27 00 00 00 00 	lea    0x0(%edi,%eiz,1),%edi

00010f20 <get_frame>:
   10f20:	55                   	push   %ebp
   10f21:	89 e5                	mov    %esp,%ebp
   10f23:	8b 45 08             	mov    0x8(%ebp),%eax
   10f26:	8b 55 0c             	mov    0xc(%ebp),%edx
   10f29:	5d                   	pop    %ebp
   10f2a:	8b 04 90             	mov    (%eax,%edx,4),%eax
   10f2d:	c1 e8 0c             	shr    $0xc,%eax
   10f30:	c3                   	ret    
   10f31:	66 90                	xchg   %ax,%ax
   10f33:	66 90                	xchg   %ax,%ax
   10f35:	66 90                	xchg   %ax,%ax
   10f37:	66 90                	xchg   %ax,%ax
   10f39:	66 90                	xchg   %ax,%ax
   10f3b:	66 90                	xchg   %ax,%ax
   10f3d:	66 90                	xchg   %ax,%ax
   10f3f:	90                   	nop

00010f40 <sys_write_console>:
   10f40:	55                   	push   %ebp
   10f41:	89 e5                	mov    %esp,%ebp
   10f43:	57                   	push   %edi
   10f44:	56                   	push   %esi
   10f45:	53                   	push   %ebx
   10f46:	e8 71 0b 00 00       	call   11abc <__x86.get_pc_thunk.bx>
   10f4b:	81 c3 25 1a 00 00    	add    $0x1a25,%ebx
   10f51:	83 ec 0c             	sub    $0xc,%esp
   10f54:	8b 45 0c             	mov    0xc(%ebp),%eax
   10f57:	85 c0                	test   %eax,%eax
   10f59:	7e 23                	jle    10f7e <sys_write_console+0x3e>
   10f5b:	8b 7d 08             	mov    0x8(%ebp),%edi
   10f5e:	8b 75 0c             	mov    0xc(%ebp),%esi
   10f61:	01 fe                	add    %edi,%esi
   10f63:	90                   	nop
   10f64:	8d 74 26 00          	lea    0x0(%esi,%eiz,1),%esi
   10f68:	0f be 17             	movsbl (%edi),%edx
   10f6b:	83 ec 0c             	sub    $0xc,%esp
   10f6e:	83 c7 01             	add    $0x1,%edi
   10f71:	52                   	push   %edx
   10f72:	e8 a9 f4 ff ff       	call   10420 <printc>
   10f77:	83 c4 10             	add    $0x10,%esp
   10f7a:	39 f7                	cmp    %esi,%edi
   10f7c:	75 ea                	jne    10f68 <sys_write_console+0x28>
   10f7e:	8b 45 0c             	mov    0xc(%ebp),%eax
   10f81:	8d 65 f4             	lea    -0xc(%ebp),%esp
   10f84:	5b                   	pop    %ebx
   10f85:	5e                   	pop    %esi
   10f86:	5f                   	pop    %edi
   10f87:	5d                   	pop    %ebp
   10f88:	c3                   	ret    
   10f89:	66 90                	xchg   %ax,%ax
   10f8b:	66 90                	xchg   %ax,%ax
   10f8d:	66 90                	xchg   %ax,%ax
   10f8f:	90                   	nop

00010f90 <copy_data>:
   10f90:	55                   	push   %ebp
   10f91:	89 e5                	mov    %esp,%ebp
   10f93:	57                   	push   %edi
   10f94:	56                   	push   %esi
   10f95:	53                   	push   %ebx
   10f96:	8b 5d 10             	mov    0x10(%ebp),%ebx
   10f99:	8b 55 08             	mov    0x8(%ebp),%edx
   10f9c:	8b 4d 0c             	mov    0xc(%ebp),%ecx
   10f9f:	83 fb 04             	cmp    $0x4,%ebx
   10fa2:	7e 4c                	jle    10ff0 <copy_data+0x60>
   10fa4:	8d 7b fb             	lea    -0x5(%ebx),%edi
   10fa7:	31 c0                	xor    %eax,%eax
   10fa9:	c1 ef 02             	shr    $0x2,%edi
   10fac:	8d 34 bd 04 00 00 00 	lea    0x4(,%edi,4),%esi
   10fb3:	90                   	nop
   10fb4:	8d 74 26 00          	lea    0x0(%esi,%eiz,1),%esi
   10fb8:	8b 1c 02             	mov    (%edx,%eax,1),%ebx
   10fbb:	89 1c 01             	mov    %ebx,(%ecx,%eax,1)
   10fbe:	83 c0 04             	add    $0x4,%eax
   10fc1:	39 f0                	cmp    %esi,%eax
   10fc3:	75 f3                	jne    10fb8 <copy_data+0x28>
   10fc5:	8b 5d 10             	mov    0x10(%ebp),%ebx
   10fc8:	f7 df                	neg    %edi
   10fca:	01 c2                	add    %eax,%edx
   10fcc:	01 c1                	add    %eax,%ecx
   10fce:	8d 5c bb fc          	lea    -0x4(%ebx,%edi,4),%ebx
   10fd2:	31 f6                	xor    %esi,%esi
   10fd4:	0f b6 04 32          	movzbl (%edx,%esi,1),%eax
   10fd8:	88 04 31             	mov    %al,(%ecx,%esi,1)
   10fdb:	83 c6 01             	add    $0x1,%esi
   10fde:	39 de                	cmp    %ebx,%esi
   10fe0:	75 f2                	jne    10fd4 <copy_data+0x44>
   10fe2:	5b                   	pop    %ebx
   10fe3:	5e                   	pop    %esi
   10fe4:	5f                   	pop    %edi
   10fe5:	5d                   	pop    %ebp
   10fe6:	c3                   	ret    
   10fe7:	89 f6                	mov    %esi,%esi
   10fe9:	8d bc 27 00 00 00 00 	lea    0x0(%edi,%eiz,1),%edi
   10ff0:	85 db                	test   %ebx,%ebx
   10ff2:	7f de                	jg     10fd2 <copy_data+0x42>
   10ff4:	5b                   	pop    %ebx
   10ff5:	5e                   	pop    %esi
   10ff6:	5f                   	pop    %edi
   10ff7:	5d                   	pop    %ebp
   10ff8:	c3                   	ret    
   10ff9:	8d b4 26 00 00 00 00 	lea    0x0(%esi,%eiz,1),%esi

00011000 <copy_from_user>:
   11000:	55                   	push   %ebp
   11001:	89 e5                	mov    %esp,%ebp
   11003:	57                   	push   %edi
   11004:	56                   	push   %esi
   11005:	53                   	push   %ebx
   11006:	8b 5d 10             	mov    0x10(%ebp),%ebx
   11009:	8b 55 08             	mov    0x8(%ebp),%edx
   1100c:	8b 4d 0c             	mov    0xc(%ebp),%ecx
   1100f:	83 fb 04             	cmp    $0x4,%ebx
   11012:	7e 4c                	jle    11060 <copy_from_user+0x60>
   11014:	8d 7b fb             	lea    -0x5(%ebx),%edi
   11017:	31 c0                	xor    %eax,%eax
   11019:	c1 ef 02             	shr    $0x2,%edi
   1101c:	8d 34 bd 04 00 00 00 	lea    0x4(,%edi,4),%esi
   11023:	90                   	nop
   11024:	8d 74 26 00          	lea    0x0(%esi,%eiz,1),%esi
   11028:	8b 1c 02             	mov    (%edx,%eax,1),%ebx
   1102b:	89 1c 01             	mov    %ebx,(%ecx,%eax,1)
   1102e:	83 c0 04             	add    $0x4,%eax
   11031:	39 f0                	cmp    %esi,%eax
   11033:	75 f3                	jne    11028 <copy_from_user+0x28>
   11035:	8b 5d 10             	mov    0x10(%ebp),%ebx
   11038:	f7 df                	neg    %edi
   1103a:	01 c2                	add    %eax,%edx
   1103c:	01 c1                	add    %eax,%ecx
   1103e:	8d 5c bb fc          	lea    -0x4(%ebx,%edi,4),%ebx
   11042:	31 f6                	xor    %esi,%esi
   11044:	0f b6 04 32          	movzbl (%edx,%esi,1),%eax
   11048:	88 04 31             	mov    %al,(%ecx,%esi,1)
   1104b:	83 c6 01             	add    $0x1,%esi
   1104e:	39 de                	cmp    %ebx,%esi
   11050:	75 f2                	jne    11044 <copy_from_user+0x44>
   11052:	5b                   	pop    %ebx
   11053:	31 c0                	xor    %eax,%eax
   11055:	5e                   	pop    %esi
   11056:	5f                   	pop    %edi
   11057:	5d                   	pop    %ebp
   11058:	c3                   	ret    
   11059:	8d b4 26 00 00 00 00 	lea    0x0(%esi,%eiz,1),%esi
   11060:	85 db                	test   %ebx,%ebx
   11062:	7f de                	jg     11042 <copy_from_user+0x42>
   11064:	5b                   	pop    %ebx
   11065:	31 c0                	xor    %eax,%eax
   11067:	5e                   	pop    %esi
   11068:	5f                   	pop    %edi
   11069:	5d                   	pop    %ebp
   1106a:	c3                   	ret    
   1106b:	90                   	nop
   1106c:	8d 74 26 00          	lea    0x0(%esi,%eiz,1),%esi

00011070 <copy_to_user>:
   11070:	55                   	push   %ebp
   11071:	89 e5                	mov    %esp,%ebp
   11073:	5d                   	pop    %ebp
   11074:	eb 8a                	jmp    11000 <copy_from_user>
   11076:	8d 76 00             	lea    0x0(%esi),%esi
   11079:	8d bc 27 00 00 00 00 	lea    0x0(%edi,%eiz,1),%edi

00011080 <access_ok>:
   11080:	55                   	push   %ebp
   11081:	89 e5                	mov    %esp,%ebp
   11083:	8b 45 0c             	mov    0xc(%ebp),%eax
   11086:	89 c1                	mov    %eax,%ecx
   11088:	03 45 10             	add    0x10(%ebp),%eax
   1108b:	c1 e9 0c             	shr    $0xc,%ecx
   1108e:	89 c2                	mov    %eax,%edx
   11090:	31 c0                	xor    %eax,%eax
   11092:	c1 ea 0c             	shr    $0xc,%edx
   11095:	39 d1                	cmp    %edx,%ecx
   11097:	77 20                	ja     110b9 <access_ok+0x39>
   11099:	81 fa 1c 01 00 00    	cmp    $0x11c,%edx
   1109f:	0f 96 c2             	setbe  %dl
   110a2:	83 7d 08 01          	cmpl   $0x1,0x8(%ebp)
   110a6:	75 18                	jne    110c0 <access_ok+0x40>
   110a8:	81 f9 07 01 00 00    	cmp    $0x107,%ecx
   110ae:	76 10                	jbe    110c0 <access_ok+0x40>
   110b0:	84 d2                	test   %dl,%dl
   110b2:	b8 01 00 00 00       	mov    $0x1,%eax
   110b7:	74 07                	je     110c0 <access_ok+0x40>
   110b9:	5d                   	pop    %ebp
   110ba:	c3                   	ret    
   110bb:	90                   	nop
   110bc:	8d 74 26 00          	lea    0x0(%esi,%eiz,1),%esi
   110c0:	31 c0                	xor    %eax,%eax
   110c2:	81 f9 ff 00 00 00    	cmp    $0xff,%ecx
   110c8:	0f 97 c0             	seta   %al
   110cb:	21 d0                	and    %edx,%eax
   110cd:	5d                   	pop    %ebp
   110ce:	c3                   	ret    
   110cf:	90                   	nop

000110d0 <get_ticks>:
   110d0:	55                   	push   %ebp
   110d1:	89 e5                	mov    %esp,%ebp
   110d3:	56                   	push   %esi
   110d4:	53                   	push   %ebx
   110d5:	0f 31                	rdtsc  
   110d7:	89 c1                	mov    %eax,%ecx
   110d9:	31 c0                	xor    %eax,%eax
   110db:	31 db                	xor    %ebx,%ebx
   110dd:	01 c8                	add    %ecx,%eax
   110df:	11 da                	adc    %ebx,%edx
   110e1:	31 f6                	xor    %esi,%esi
   110e3:	85 d2                	test   %edx,%edx
   110e5:	89 c1                	mov    %eax,%ecx
   110e7:	89 d3                	mov    %edx,%ebx
   110e9:	74 1b                	je     11106 <get_ticks+0x36>
   110eb:	89 d8                	mov    %ebx,%eax
   110ed:	ba a9 d7 7a 26       	mov    $0x267ad7a9,%edx
   110f2:	f7 e2                	mul    %edx
   110f4:	89 d0                	mov    %edx,%eax
   110f6:	89 d6                	mov    %edx,%esi
   110f8:	c1 e8 0e             	shr    $0xe,%eax
   110fb:	c1 ee 0e             	shr    $0xe,%esi
   110fe:	69 c0 c8 a9 01 00    	imul   $0x1a9c8,%eax,%eax
   11104:	29 c3                	sub    %eax,%ebx
   11106:	89 da                	mov    %ebx,%edx
   11108:	89 c8                	mov    %ecx,%eax
   1110a:	bb c8 a9 01 00       	mov    $0x1a9c8,%ebx
   1110f:	f7 f3                	div    %ebx
   11111:	89 f2                	mov    %esi,%edx
   11113:	5b                   	pop    %ebx
   11114:	5e                   	pop    %esi
   11115:	5d                   	pop    %ebp
   11116:	c3                   	ret    
   11117:	66 90                	xchg   %ax,%ax
   11119:	66 90                	xchg   %ax,%ax
   1111b:	66 90                	xchg   %ax,%ax
   1111d:	66 90                	xchg   %ax,%ax
   1111f:	90                   	nop

00011120 <get_eflags>:
   11120:	55                   	push   %ebp
   11121:	89 e5                	mov    %esp,%ebp
   11123:	9c                   	pushf  
   11124:	58                   	pop    %eax
   11125:	5d                   	pop    %ebp
   11126:	c3                   	ret    
   11127:	89 f6                	mov    %esi,%esi
   11129:	8d bc 27 00 00 00 00 	lea    0x0(%edi,%eiz,1),%edi

00011130 <set_eflags>:
   11130:	55                   	push   %ebp
   11131:	89 e5                	mov    %esp,%ebp
   11133:	6a 00                	push   $0x0
   11135:	9d                   	popf   
   11136:	5d                   	pop    %ebp
   11137:	c3                   	ret    
   11138:	90                   	nop
   11139:	8d b4 26 00 00 00 00 	lea    0x0(%esi,%eiz,1),%esi

00011140 <set_idt_reg>:
   11140:	55                   	push   %ebp
   11141:	89 e5                	mov    %esp,%ebp
   11143:	8b 45 08             	mov    0x8(%ebp),%eax
   11146:	0f 01 18             	lidtl  (%eax)
   11149:	5d                   	pop    %ebp
   1114a:	c3                   	ret    
   1114b:	90                   	nop
   1114c:	8d 74 26 00          	lea    0x0(%esi,%eiz,1),%esi

00011150 <set_gdt_reg>:
   11150:	55                   	push   %ebp
   11151:	89 e5                	mov    %esp,%ebp
   11153:	8b 45 08             	mov    0x8(%ebp),%eax
   11156:	0f 01 10             	lgdtl  (%eax)
   11159:	5d                   	pop    %ebp
   1115a:	c3                   	ret    
   1115b:	90                   	nop
   1115c:	8d 74 26 00          	lea    0x0(%esi,%eiz,1),%esi

00011160 <set_ldt_reg>:
   11160:	55                   	push   %ebp
   11161:	89 e5                	mov    %esp,%ebp
   11163:	8b 45 08             	mov    0x8(%ebp),%eax
   11166:	0f 00 d0             	lldt   %ax
   11169:	5d                   	pop    %ebp
   1116a:	c3                   	ret    
   1116b:	90                   	nop
   1116c:	8d 74 26 00          	lea    0x0(%esi,%eiz,1),%esi

00011170 <set_task_reg>:
   11170:	55                   	push   %ebp
   11171:	89 e5                	mov    %esp,%ebp
   11173:	8b 45 08             	mov    0x8(%ebp),%eax
   11176:	0f 00 d8             	ltr    %ax
   11179:	5d                   	pop    %ebp
   1117a:	c3                   	ret    
   1117b:	90                   	nop
   1117c:	8d 74 26 00          	lea    0x0(%esi,%eiz,1),%esi

00011180 <return_gate>:
   11180:	55                   	push   %ebp
   11181:	e8 42 09 00 00       	call   11ac8 <__x86.get_pc_thunk.ax>
   11186:	05 ea 17 00 00       	add    $0x17ea,%eax
   1118b:	89 e5                	mov    %esp,%ebp
   1118d:	83 ec 0c             	sub    $0xc,%esp
   11190:	8b 55 08             	mov    0x8(%ebp),%edx
   11193:	c7 c0 e0 28 01 00    	mov    $0x128e0,%eax
   11199:	66 89 55 fc          	mov    %dx,-0x4(%ebp)
   1119d:	8b 55 0c             	mov    0xc(%ebp),%edx
   111a0:	8b 00                	mov    (%eax),%eax
   111a2:	66 89 55 f8          	mov    %dx,-0x8(%ebp)
   111a6:	8b 55 14             	mov    0x14(%ebp),%edx
   111a9:	66 89 55 f4          	mov    %dx,-0xc(%ebp)
   111ad:	8b 10                	mov    (%eax),%edx
   111af:	8e 45 fc             	mov    -0x4(%ebp),%es
   111b2:	8e 5d fc             	mov    -0x4(%ebp),%ds
   111b5:	8b 45 10             	mov    0x10(%ebp),%eax
   111b8:	83 c0 0c             	add    $0xc,%eax
   111bb:	89 10                	mov    %edx,(%eax)
   111bd:	ff 75 f8             	pushl  -0x8(%ebp)
   111c0:	ff 75 10             	pushl  0x10(%ebp)
   111c3:	ff 75 f4             	pushl  -0xc(%ebp)
   111c6:	ff 75 18             	pushl  0x18(%ebp)
   111c9:	cb                   	lret   
   111ca:	c9                   	leave  
   111cb:	c3                   	ret    
   111cc:	8d 74 26 00          	lea    0x0(%esi,%eiz,1),%esi

000111d0 <enable_int>:
   111d0:	55                   	push   %ebp
   111d1:	89 e5                	mov    %esp,%ebp
   111d3:	b0 ff                	mov    $0xff,%al
   111d5:	e6 21                	out    %al,$0x21
   111d7:	e8 04 00 00 00       	call   111e0 <delay>
   111dc:	fb                   	sti    
   111dd:	5d                   	pop    %ebp
   111de:	c3                   	ret    
   111df:	90                   	nop

000111e0 <delay>:
   111e0:	55                   	push   %ebp
   111e1:	89 e5                	mov    %esp,%ebp
   111e3:	eb 00                	jmp    111e5 <a>

000111e5 <a>:
   111e5:	5d                   	pop    %ebp
   111e6:	c3                   	ret    
   111e7:	66 90                	xchg   %ax,%ax
   111e9:	66 90                	xchg   %ax,%ax
   111eb:	66 90                	xchg   %ax,%ax
   111ed:	66 90                	xchg   %ax,%ax
   111ef:	90                   	nop

000111f0 <INIT_LIST_HEAD>:
   111f0:	55                   	push   %ebp
   111f1:	89 e5                	mov    %esp,%ebp
   111f3:	8b 45 08             	mov    0x8(%ebp),%eax
   111f6:	89 00                	mov    %eax,(%eax)
   111f8:	89 40 04             	mov    %eax,0x4(%eax)
   111fb:	5d                   	pop    %ebp
   111fc:	c3                   	ret    
   111fd:	8d 76 00             	lea    0x0(%esi),%esi

00011200 <list_add>:
   11200:	55                   	push   %ebp
   11201:	89 e5                	mov    %esp,%ebp
   11203:	8b 55 0c             	mov    0xc(%ebp),%edx
   11206:	8b 45 08             	mov    0x8(%ebp),%eax
   11209:	8b 0a                	mov    (%edx),%ecx
   1120b:	89 41 04             	mov    %eax,0x4(%ecx)
   1120e:	89 08                	mov    %ecx,(%eax)
   11210:	89 50 04             	mov    %edx,0x4(%eax)
   11213:	89 02                	mov    %eax,(%edx)
   11215:	5d                   	pop    %ebp
   11216:	c3                   	ret    
   11217:	89 f6                	mov    %esi,%esi
   11219:	8d bc 27 00 00 00 00 	lea    0x0(%edi,%eiz,1),%edi

00011220 <list_add_tail>:
   11220:	55                   	push   %ebp
   11221:	89 e5                	mov    %esp,%ebp
   11223:	8b 55 0c             	mov    0xc(%ebp),%edx
   11226:	8b 45 08             	mov    0x8(%ebp),%eax
   11229:	8b 4a 04             	mov    0x4(%edx),%ecx
   1122c:	89 42 04             	mov    %eax,0x4(%edx)
   1122f:	89 10                	mov    %edx,(%eax)
   11231:	89 48 04             	mov    %ecx,0x4(%eax)
   11234:	89 01                	mov    %eax,(%ecx)
   11236:	5d                   	pop    %ebp
   11237:	c3                   	ret    
   11238:	90                   	nop
   11239:	8d b4 26 00 00 00 00 	lea    0x0(%esi,%eiz,1),%esi

00011240 <list_del>:
   11240:	55                   	push   %ebp
   11241:	89 e5                	mov    %esp,%ebp
   11243:	8b 45 08             	mov    0x8(%ebp),%eax
   11246:	8b 08                	mov    (%eax),%ecx
   11248:	8b 50 04             	mov    0x4(%eax),%edx
   1124b:	89 51 04             	mov    %edx,0x4(%ecx)
   1124e:	89 0a                	mov    %ecx,(%edx)
   11250:	c7 00 00 00 00 00    	movl   $0x0,(%eax)
   11256:	c7 40 04 00 00 00 00 	movl   $0x0,0x4(%eax)
   1125d:	5d                   	pop    %ebp
   1125e:	c3                   	ret    
   1125f:	90                   	nop

00011260 <list_is_last>:
   11260:	55                   	push   %ebp
   11261:	89 e5                	mov    %esp,%ebp
   11263:	8b 45 08             	mov    0x8(%ebp),%eax
   11266:	8b 55 0c             	mov    0xc(%ebp),%edx
   11269:	5d                   	pop    %ebp
   1126a:	39 10                	cmp    %edx,(%eax)
   1126c:	0f 94 c0             	sete   %al
   1126f:	0f b6 c0             	movzbl %al,%eax
   11272:	c3                   	ret    
   11273:	8d b6 00 00 00 00    	lea    0x0(%esi),%esi
   11279:	8d bc 27 00 00 00 00 	lea    0x0(%edi,%eiz,1),%edi

00011280 <list_empty>:
   11280:	55                   	push   %ebp
   11281:	89 e5                	mov    %esp,%ebp
   11283:	8b 45 08             	mov    0x8(%ebp),%eax
   11286:	5d                   	pop    %ebp
   11287:	39 00                	cmp    %eax,(%eax)
   11289:	0f 94 c0             	sete   %al
   1128c:	0f b6 c0             	movzbl %al,%eax
   1128f:	c3                   	ret    

00011290 <itoa.part.0>:
   11290:	85 c0                	test   %eax,%eax
   11292:	7e 66                	jle    112fa <itoa.part.0+0x6a>
   11294:	55                   	push   %ebp
   11295:	89 c1                	mov    %eax,%ecx
   11297:	89 e5                	mov    %esp,%ebp
   11299:	57                   	push   %edi
   1129a:	bf 67 66 66 66       	mov    $0x66666667,%edi
   1129f:	56                   	push   %esi
   112a0:	31 f6                	xor    %esi,%esi
   112a2:	53                   	push   %ebx
   112a3:	89 d3                	mov    %edx,%ebx
   112a5:	8d 76 00             	lea    0x0(%esi),%esi
   112a8:	89 c8                	mov    %ecx,%eax
   112aa:	f7 ef                	imul   %edi
   112ac:	89 c8                	mov    %ecx,%eax
   112ae:	c1 f8 1f             	sar    $0x1f,%eax
   112b1:	c1 fa 02             	sar    $0x2,%edx
   112b4:	29 c2                	sub    %eax,%edx
   112b6:	8d 04 92             	lea    (%edx,%edx,4),%eax
   112b9:	01 c0                	add    %eax,%eax
   112bb:	29 c1                	sub    %eax,%ecx
   112bd:	83 c1 30             	add    $0x30,%ecx
   112c0:	88 0c 33             	mov    %cl,(%ebx,%esi,1)
   112c3:	83 c6 01             	add    $0x1,%esi
   112c6:	85 d2                	test   %edx,%edx
   112c8:	89 d1                	mov    %edx,%ecx
   112ca:	75 dc                	jne    112a8 <itoa.part.0+0x18>
   112cc:	89 f2                	mov    %esi,%edx
   112ce:	d1 fa                	sar    %edx
   112d0:	74 24                	je     112f6 <itoa.part.0+0x66>
   112d2:	8d 44 1e ff          	lea    -0x1(%esi,%ebx,1),%eax
   112d6:	8d 34 13             	lea    (%ebx,%edx,1),%esi
   112d9:	8d b4 26 00 00 00 00 	lea    0x0(%esi,%eiz,1),%esi
   112e0:	0f b6 08             	movzbl (%eax),%ecx
   112e3:	0f b6 13             	movzbl (%ebx),%edx
   112e6:	83 c3 01             	add    $0x1,%ebx
   112e9:	83 e8 01             	sub    $0x1,%eax
   112ec:	88 4b ff             	mov    %cl,-0x1(%ebx)
   112ef:	88 50 01             	mov    %dl,0x1(%eax)
   112f2:	39 de                	cmp    %ebx,%esi
   112f4:	75 ea                	jne    112e0 <itoa.part.0+0x50>
   112f6:	5b                   	pop    %ebx
   112f7:	5e                   	pop    %esi
   112f8:	5f                   	pop    %edi
   112f9:	5d                   	pop    %ebp
   112fa:	f3 c3                	repz ret 
   112fc:	8d 74 26 00          	lea    0x0(%esi,%eiz,1),%esi

00011300 <itoa>:
   11300:	55                   	push   %ebp
   11301:	89 e5                	mov    %esp,%ebp
   11303:	8b 45 08             	mov    0x8(%ebp),%eax
   11306:	8b 55 0c             	mov    0xc(%ebp),%edx
   11309:	85 c0                	test   %eax,%eax
   1130b:	74 03                	je     11310 <itoa+0x10>
   1130d:	5d                   	pop    %ebp
   1130e:	eb 80                	jmp    11290 <itoa.part.0>
   11310:	c6 02 30             	movb   $0x30,(%edx)
   11313:	5d                   	pop    %ebp
   11314:	c3                   	ret    
   11315:	8d 74 26 00          	lea    0x0(%esi,%eiz,1),%esi
   11319:	8d bc 27 00 00 00 00 	lea    0x0(%edi,%eiz,1),%edi

00011320 <zeos_show_clock>:
   11320:	a1 8c 29 01 00       	mov    0x1298c,%eax
   11325:	83 c0 01             	add    $0x1,%eax
   11328:	83 f8 12             	cmp    $0x12,%eax
   1132b:	a3 8c 29 01 00       	mov    %eax,0x1298c
   11330:	74 06                	je     11338 <zeos_show_clock+0x18>
   11332:	c3                   	ret    
   11333:	90                   	nop
   11334:	8d 74 26 00          	lea    0x0(%esi,%eiz,1),%esi
   11338:	55                   	push   %ebp
   11339:	89 e5                	mov    %esp,%ebp
   1133b:	53                   	push   %ebx
   1133c:	83 ec 10             	sub    $0x10,%esp
   1133f:	a1 88 29 01 00       	mov    0x12988,%eax
   11344:	c7 05 8c 29 01 00 00 	movl   $0x0,0x1298c
   1134b:	00 00 00 
   1134e:	83 c0 01             	add    $0x1,%eax
   11351:	83 f8 3c             	cmp    $0x3c,%eax
   11354:	a3 88 29 01 00       	mov    %eax,0x12988
   11359:	0f 84 e1 00 00 00    	je     11440 <zeos_show_clock+0x120>
   1135f:	a1 84 29 01 00       	mov    0x12984,%eax
   11364:	85 c0                	test   %eax,%eax
   11366:	0f 85 c4 00 00 00    	jne    11430 <zeos_show_clock+0x110>
   1136c:	c6 45 f4 30          	movb   $0x30,-0xc(%ebp)
   11370:	a1 88 29 01 00       	mov    0x12988,%eax
   11375:	31 c9                	xor    %ecx,%ecx
   11377:	ba 30 02 00 00       	mov    $0x230,%edx
   1137c:	85 c0                	test   %eax,%eax
   1137e:	0f 85 8c 00 00 00    	jne    11410 <zeos_show_clock+0xf0>
   11384:	83 3d 84 29 01 00 09 	cmpl   $0x9,0x12984
   1138b:	7f 4b                	jg     113d8 <zeos_show_clock+0xb8>
   1138d:	b8 8c 80 0b 00       	mov    $0xb808c,%eax
   11392:	66 c7 00 30 02       	movw   $0x230,(%eax)
   11397:	0f b6 45 f4          	movzbl -0xc(%ebp),%eax
   1139b:	bb 8e 80 0b 00       	mov    $0xb808e,%ebx
   113a0:	80 cc 02             	or     $0x2,%ah
   113a3:	66 89 03             	mov    %ax,(%ebx)
   113a6:	b8 90 80 0b 00       	mov    $0xb8090,%eax
   113ab:	66 c7 00 3a 02       	movw   $0x23a,(%eax)
   113b0:	83 f9 09             	cmp    $0x9,%ecx
   113b3:	b8 92 80 0b 00       	mov    $0xb8092,%eax
   113b8:	7e 46                	jle    11400 <zeos_show_clock+0xe0>
   113ba:	66 89 10             	mov    %dx,(%eax)
   113bd:	0f b6 45 f9          	movzbl -0x7(%ebp),%eax
   113c1:	ba 94 80 0b 00       	mov    $0xb8094,%edx
   113c6:	80 cc 02             	or     $0x2,%ah
   113c9:	66 89 02             	mov    %ax,(%edx)
   113cc:	83 c4 10             	add    $0x10,%esp
   113cf:	5b                   	pop    %ebx
   113d0:	5d                   	pop    %ebp
   113d1:	c3                   	ret    
   113d2:	8d b6 00 00 00 00    	lea    0x0(%esi),%esi
   113d8:	0f b6 45 f4          	movzbl -0xc(%ebp),%eax
   113dc:	bb 8c 80 0b 00       	mov    $0xb808c,%ebx
   113e1:	80 cc 02             	or     $0x2,%ah
   113e4:	66 89 03             	mov    %ax,(%ebx)
   113e7:	0f b6 45 f5          	movzbl -0xb(%ebp),%eax
   113eb:	bb 8e 80 0b 00       	mov    $0xb808e,%ebx
   113f0:	80 cc 02             	or     $0x2,%ah
   113f3:	66 89 03             	mov    %ax,(%ebx)
   113f6:	eb ae                	jmp    113a6 <zeos_show_clock+0x86>
   113f8:	90                   	nop
   113f9:	8d b4 26 00 00 00 00 	lea    0x0(%esi,%eiz,1),%esi
   11400:	66 c7 00 30 02       	movw   $0x230,(%eax)
   11405:	b8 94 80 0b 00       	mov    $0xb8094,%eax
   1140a:	66 89 10             	mov    %dx,(%eax)
   1140d:	eb bd                	jmp    113cc <zeos_show_clock+0xac>
   1140f:	90                   	nop
   11410:	8d 55 f8             	lea    -0x8(%ebp),%edx
   11413:	e8 78 fe ff ff       	call   11290 <itoa.part.0>
   11418:	0f b6 55 f8          	movzbl -0x8(%ebp),%edx
   1141c:	8b 0d 88 29 01 00    	mov    0x12988,%ecx
   11422:	80 ce 02             	or     $0x2,%dh
   11425:	e9 5a ff ff ff       	jmp    11384 <zeos_show_clock+0x64>
   1142a:	8d b6 00 00 00 00    	lea    0x0(%esi),%esi
   11430:	8d 55 f4             	lea    -0xc(%ebp),%edx
   11433:	e8 58 fe ff ff       	call   11290 <itoa.part.0>
   11438:	e9 33 ff ff ff       	jmp    11370 <zeos_show_clock+0x50>
   1143d:	8d 76 00             	lea    0x0(%esi),%esi
   11440:	a1 84 29 01 00       	mov    0x12984,%eax
   11445:	c7 05 88 29 01 00 00 	movl   $0x0,0x12988
   1144c:	00 00 00 
   1144f:	83 c0 01             	add    $0x1,%eax
   11452:	a3 84 29 01 00       	mov    %eax,0x12984
   11457:	e9 08 ff ff ff       	jmp    11364 <zeos_show_clock+0x44>
   1145c:	8d 74 26 00          	lea    0x0(%esi,%eiz,1),%esi

00011460 <divide_error_routine>:
   11460:	55                   	push   %ebp
   11461:	89 e5                	mov    %esp,%ebp
   11463:	83 ec 14             	sub    $0x14,%esp
   11466:	68 f9 1a 01 00       	push   $0x11af9
   1146b:	e8 c0 f0 ff ff       	call   10530 <printk>
   11470:	83 c4 10             	add    $0x10,%esp
   11473:	eb fe                	jmp    11473 <divide_error_routine+0x13>
   11475:	8d 74 26 00          	lea    0x0(%esi,%eiz,1),%esi
   11479:	8d bc 27 00 00 00 00 	lea    0x0(%edi,%eiz,1),%edi

00011480 <debug_routine>:
   11480:	55                   	push   %ebp
   11481:	89 e5                	mov    %esp,%ebp
   11483:	83 ec 14             	sub    $0x14,%esp
   11486:	68 0e 1b 01 00       	push   $0x11b0e
   1148b:	e8 a0 f0 ff ff       	call   10530 <printk>
   11490:	83 c4 10             	add    $0x10,%esp
   11493:	eb fe                	jmp    11493 <debug_routine+0x13>
   11495:	8d 74 26 00          	lea    0x0(%esi,%eiz,1),%esi
   11499:	8d bc 27 00 00 00 00 	lea    0x0(%edi,%eiz,1),%edi

000114a0 <nm1_routine>:
   114a0:	55                   	push   %ebp
   114a1:	89 e5                	mov    %esp,%ebp
   114a3:	83 ec 14             	sub    $0x14,%esp
   114a6:	68 1c 1b 01 00       	push   $0x11b1c
   114ab:	e8 80 f0 ff ff       	call   10530 <printk>
   114b0:	83 c4 10             	add    $0x10,%esp
   114b3:	eb fe                	jmp    114b3 <nm1_routine+0x13>
   114b5:	8d 74 26 00          	lea    0x0(%esi,%eiz,1),%esi
   114b9:	8d bc 27 00 00 00 00 	lea    0x0(%edi,%eiz,1),%edi

000114c0 <breakpoint_routine>:
   114c0:	55                   	push   %ebp
   114c1:	89 e5                	mov    %esp,%ebp
   114c3:	83 ec 14             	sub    $0x14,%esp
   114c6:	68 28 1b 01 00       	push   $0x11b28
   114cb:	e8 60 f0 ff ff       	call   10530 <printk>
   114d0:	83 c4 10             	add    $0x10,%esp
   114d3:	eb fe                	jmp    114d3 <breakpoint_routine+0x13>
   114d5:	8d 74 26 00          	lea    0x0(%esi,%eiz,1),%esi
   114d9:	8d bc 27 00 00 00 00 	lea    0x0(%edi,%eiz,1),%edi

000114e0 <overflow_routine>:
   114e0:	55                   	push   %ebp
   114e1:	89 e5                	mov    %esp,%ebp
   114e3:	83 ec 14             	sub    $0x14,%esp
   114e6:	68 3b 1b 01 00       	push   $0x11b3b
   114eb:	e8 40 f0 ff ff       	call   10530 <printk>
   114f0:	83 c4 10             	add    $0x10,%esp
   114f3:	eb fe                	jmp    114f3 <overflow_routine+0x13>
   114f5:	8d 74 26 00          	lea    0x0(%esi,%eiz,1),%esi
   114f9:	8d bc 27 00 00 00 00 	lea    0x0(%edi,%eiz,1),%edi

00011500 <bounds_check_routine>:
   11500:	55                   	push   %ebp
   11501:	89 e5                	mov    %esp,%ebp
   11503:	83 ec 14             	sub    $0x14,%esp
   11506:	68 4c 1b 01 00       	push   $0x11b4c
   1150b:	e8 20 f0 ff ff       	call   10530 <printk>
   11510:	83 c4 10             	add    $0x10,%esp
   11513:	eb fe                	jmp    11513 <bounds_check_routine+0x13>
   11515:	8d 74 26 00          	lea    0x0(%esi,%eiz,1),%esi
   11519:	8d bc 27 00 00 00 00 	lea    0x0(%edi,%eiz,1),%edi

00011520 <invalid_opcode_routine>:
   11520:	55                   	push   %ebp
   11521:	89 e5                	mov    %esp,%ebp
   11523:	83 ec 14             	sub    $0x14,%esp
   11526:	68 61 1b 01 00       	push   $0x11b61
   1152b:	e8 00 f0 ff ff       	call   10530 <printk>
   11530:	83 c4 10             	add    $0x10,%esp
   11533:	eb fe                	jmp    11533 <invalid_opcode_routine+0x13>
   11535:	8d 74 26 00          	lea    0x0(%esi,%eiz,1),%esi
   11539:	8d bc 27 00 00 00 00 	lea    0x0(%edi,%eiz,1),%edi

00011540 <device_not_available_routine>:
   11540:	55                   	push   %ebp
   11541:	89 e5                	mov    %esp,%ebp
   11543:	83 ec 14             	sub    $0x14,%esp
   11546:	68 78 1b 01 00       	push   $0x11b78
   1154b:	e8 e0 ef ff ff       	call   10530 <printk>
   11550:	83 c4 10             	add    $0x10,%esp
   11553:	eb fe                	jmp    11553 <device_not_available_routine+0x13>
   11555:	8d 74 26 00          	lea    0x0(%esi,%eiz,1),%esi
   11559:	8d bc 27 00 00 00 00 	lea    0x0(%edi,%eiz,1),%edi

00011560 <double_fault_routine>:
   11560:	55                   	push   %ebp
   11561:	89 e5                	mov    %esp,%ebp
   11563:	83 ec 14             	sub    $0x14,%esp
   11566:	68 95 1b 01 00       	push   $0x11b95
   1156b:	e8 c0 ef ff ff       	call   10530 <printk>
   11570:	83 c4 10             	add    $0x10,%esp
   11573:	eb fe                	jmp    11573 <double_fault_routine+0x13>
   11575:	8d 74 26 00          	lea    0x0(%esi,%eiz,1),%esi
   11579:	8d bc 27 00 00 00 00 	lea    0x0(%edi,%eiz,1),%edi

00011580 <coprocessor_segment_overrun_routine>:
   11580:	55                   	push   %ebp
   11581:	89 e5                	mov    %esp,%ebp
   11583:	83 ec 14             	sub    $0x14,%esp
   11586:	68 b0 28 01 00       	push   $0x128b0
   1158b:	e8 a0 ef ff ff       	call   10530 <printk>
   11590:	83 c4 10             	add    $0x10,%esp
   11593:	eb fe                	jmp    11593 <coprocessor_segment_overrun_routine+0x13>
   11595:	8d 74 26 00          	lea    0x0(%esi,%eiz,1),%esi
   11599:	8d bc 27 00 00 00 00 	lea    0x0(%edi,%eiz,1),%edi

000115a0 <invalid_tss_routine>:
   115a0:	55                   	push   %ebp
   115a1:	89 e5                	mov    %esp,%ebp
   115a3:	83 ec 14             	sub    $0x14,%esp
   115a6:	68 a4 1b 01 00       	push   $0x11ba4
   115ab:	e8 80 ef ff ff       	call   10530 <printk>
   115b0:	83 c4 10             	add    $0x10,%esp
   115b3:	eb fe                	jmp    115b3 <invalid_tss_routine+0x13>
   115b5:	8d 74 26 00          	lea    0x0(%esi,%eiz,1),%esi
   115b9:	8d bc 27 00 00 00 00 	lea    0x0(%edi,%eiz,1),%edi

000115c0 <segment_not_present_routine>:
   115c0:	55                   	push   %ebp
   115c1:	89 e5                	mov    %esp,%ebp
   115c3:	83 ec 14             	sub    $0x14,%esp
   115c6:	68 b8 1b 01 00       	push   $0x11bb8
   115cb:	e8 60 ef ff ff       	call   10530 <printk>
   115d0:	83 c4 10             	add    $0x10,%esp
   115d3:	eb fe                	jmp    115d3 <segment_not_present_routine+0x13>
   115d5:	8d 74 26 00          	lea    0x0(%esi,%eiz,1),%esi
   115d9:	8d bc 27 00 00 00 00 	lea    0x0(%edi,%eiz,1),%edi

000115e0 <stack_exception_routine>:
   115e0:	55                   	push   %ebp
   115e1:	89 e5                	mov    %esp,%ebp
   115e3:	83 ec 14             	sub    $0x14,%esp
   115e6:	68 d4 1b 01 00       	push   $0x11bd4
   115eb:	e8 40 ef ff ff       	call   10530 <printk>
   115f0:	83 c4 10             	add    $0x10,%esp
   115f3:	eb fe                	jmp    115f3 <stack_exception_routine+0x13>
   115f5:	8d 74 26 00          	lea    0x0(%esi,%eiz,1),%esi
   115f9:	8d bc 27 00 00 00 00 	lea    0x0(%edi,%eiz,1),%edi

00011600 <general_protection_routine>:
   11600:	55                   	push   %ebp
   11601:	89 e5                	mov    %esp,%ebp
   11603:	83 ec 14             	sub    $0x14,%esp
   11606:	68 ec 1b 01 00       	push   $0x11bec
   1160b:	e8 20 ef ff ff       	call   10530 <printk>
   11610:	83 c4 10             	add    $0x10,%esp
   11613:	eb fe                	jmp    11613 <general_protection_routine+0x13>
   11615:	8d 74 26 00          	lea    0x0(%esi,%eiz,1),%esi
   11619:	8d bc 27 00 00 00 00 	lea    0x0(%edi,%eiz,1),%edi

00011620 <page_fault_routine>:
   11620:	55                   	push   %ebp
   11621:	89 e5                	mov    %esp,%ebp
   11623:	83 ec 14             	sub    $0x14,%esp
   11626:	68 07 1c 01 00       	push   $0x11c07
   1162b:	e8 00 ef ff ff       	call   10530 <printk>
   11630:	83 c4 10             	add    $0x10,%esp
   11633:	eb fe                	jmp    11633 <page_fault_routine+0x13>
   11635:	8d 74 26 00          	lea    0x0(%esi,%eiz,1),%esi
   11639:	8d bc 27 00 00 00 00 	lea    0x0(%edi,%eiz,1),%edi

00011640 <intel_reserved_routine>:
   11640:	55                   	push   %ebp
   11641:	89 e5                	mov    %esp,%ebp
   11643:	83 ec 14             	sub    $0x14,%esp
   11646:	68 14 1c 01 00       	push   $0x11c14
   1164b:	e8 e0 ee ff ff       	call   10530 <printk>
   11650:	83 c4 10             	add    $0x10,%esp
   11653:	eb fe                	jmp    11653 <intel_reserved_routine+0x13>
   11655:	8d 74 26 00          	lea    0x0(%esi,%eiz,1),%esi
   11659:	8d bc 27 00 00 00 00 	lea    0x0(%edi,%eiz,1),%edi

00011660 <floating_point_error_routine>:
   11660:	55                   	push   %ebp
   11661:	89 e5                	mov    %esp,%ebp
   11663:	83 ec 14             	sub    $0x14,%esp
   11666:	68 2b 1c 01 00       	push   $0x11c2b
   1166b:	e8 c0 ee ff ff       	call   10530 <printk>
   11670:	83 c4 10             	add    $0x10,%esp
   11673:	eb fe                	jmp    11673 <floating_point_error_routine+0x13>
   11675:	8d 74 26 00          	lea    0x0(%esi,%eiz,1),%esi
   11679:	8d bc 27 00 00 00 00 	lea    0x0(%edi,%eiz,1),%edi

00011680 <alignment_check_routine>:
   11680:	55                   	push   %ebp
   11681:	89 e5                	mov    %esp,%ebp
   11683:	83 ec 14             	sub    $0x14,%esp
   11686:	68 42 1c 01 00       	push   $0x11c42
   1168b:	e8 a0 ee ff ff       	call   10530 <printk>
   11690:	83 c4 10             	add    $0x10,%esp
   11693:	eb fe                	jmp    11693 <alignment_check_routine+0x13>
   11695:	8d 74 26 00          	lea    0x0(%esi,%eiz,1),%esi
   11699:	8d bc 27 00 00 00 00 	lea    0x0(%edi,%eiz,1),%edi

000116a0 <set_handlers>:
   116a0:	55                   	push   %ebp
   116a1:	89 e5                	mov    %esp,%ebp
   116a3:	83 ec 0c             	sub    $0xc,%esp
   116a6:	6a 00                	push   $0x0
   116a8:	68 da 17 01 00       	push   $0x117da
   116ad:	6a 00                	push   $0x0
   116af:	e8 2c ea ff ff       	call   100e0 <setInterruptHandler>
   116b4:	83 c4 0c             	add    $0xc,%esp
   116b7:	6a 00                	push   $0x0
   116b9:	68 03 18 01 00       	push   $0x11803
   116be:	6a 01                	push   $0x1
   116c0:	e8 1b ea ff ff       	call   100e0 <setInterruptHandler>
   116c5:	83 c4 0c             	add    $0xc,%esp
   116c8:	6a 00                	push   $0x0
   116ca:	68 2c 18 01 00       	push   $0x1182c
   116cf:	6a 02                	push   $0x2
   116d1:	e8 0a ea ff ff       	call   100e0 <setInterruptHandler>
   116d6:	83 c4 0c             	add    $0xc,%esp
   116d9:	6a 00                	push   $0x0
   116db:	68 55 18 01 00       	push   $0x11855
   116e0:	6a 03                	push   $0x3
   116e2:	e8 f9 e9 ff ff       	call   100e0 <setInterruptHandler>
   116e7:	83 c4 0c             	add    $0xc,%esp
   116ea:	6a 00                	push   $0x0
   116ec:	68 7e 18 01 00       	push   $0x1187e
   116f1:	6a 04                	push   $0x4
   116f3:	e8 e8 e9 ff ff       	call   100e0 <setInterruptHandler>
   116f8:	83 c4 0c             	add    $0xc,%esp
   116fb:	6a 00                	push   $0x0
   116fd:	68 a7 18 01 00       	push   $0x118a7
   11702:	6a 05                	push   $0x5
   11704:	e8 d7 e9 ff ff       	call   100e0 <setInterruptHandler>
   11709:	83 c4 0c             	add    $0xc,%esp
   1170c:	6a 00                	push   $0x0
   1170e:	68 d0 18 01 00       	push   $0x118d0
   11713:	6a 06                	push   $0x6
   11715:	e8 c6 e9 ff ff       	call   100e0 <setInterruptHandler>
   1171a:	83 c4 0c             	add    $0xc,%esp
   1171d:	6a 00                	push   $0x0
   1171f:	68 f9 18 01 00       	push   $0x118f9
   11724:	6a 07                	push   $0x7
   11726:	e8 b5 e9 ff ff       	call   100e0 <setInterruptHandler>
   1172b:	83 c4 0c             	add    $0xc,%esp
   1172e:	6a 00                	push   $0x0
   11730:	68 22 19 01 00       	push   $0x11922
   11735:	6a 08                	push   $0x8
   11737:	e8 a4 e9 ff ff       	call   100e0 <setInterruptHandler>
   1173c:	83 c4 0c             	add    $0xc,%esp
   1173f:	6a 00                	push   $0x0
   11741:	68 4b 19 01 00       	push   $0x1194b
   11746:	6a 09                	push   $0x9
   11748:	e8 93 e9 ff ff       	call   100e0 <setInterruptHandler>
   1174d:	83 c4 0c             	add    $0xc,%esp
   11750:	6a 00                	push   $0x0
   11752:	68 74 19 01 00       	push   $0x11974
   11757:	6a 0a                	push   $0xa
   11759:	e8 82 e9 ff ff       	call   100e0 <setInterruptHandler>
   1175e:	83 c4 0c             	add    $0xc,%esp
   11761:	6a 00                	push   $0x0
   11763:	68 9d 19 01 00       	push   $0x1199d
   11768:	6a 0b                	push   $0xb
   1176a:	e8 71 e9 ff ff       	call   100e0 <setInterruptHandler>
   1176f:	83 c4 0c             	add    $0xc,%esp
   11772:	6a 00                	push   $0x0
   11774:	68 c6 19 01 00       	push   $0x119c6
   11779:	6a 0c                	push   $0xc
   1177b:	e8 60 e9 ff ff       	call   100e0 <setInterruptHandler>
   11780:	83 c4 0c             	add    $0xc,%esp
   11783:	6a 00                	push   $0x0
   11785:	68 ef 19 01 00       	push   $0x119ef
   1178a:	6a 0d                	push   $0xd
   1178c:	e8 4f e9 ff ff       	call   100e0 <setInterruptHandler>
   11791:	83 c4 0c             	add    $0xc,%esp
   11794:	6a 00                	push   $0x0
   11796:	68 18 1a 01 00       	push   $0x11a18
   1179b:	6a 0e                	push   $0xe
   1179d:	e8 3e e9 ff ff       	call   100e0 <setInterruptHandler>
   117a2:	83 c4 0c             	add    $0xc,%esp
   117a5:	6a 00                	push   $0x0
   117a7:	68 41 1a 01 00       	push   $0x11a41
   117ac:	6a 0f                	push   $0xf
   117ae:	e8 2d e9 ff ff       	call   100e0 <setInterruptHandler>
   117b3:	83 c4 0c             	add    $0xc,%esp
   117b6:	6a 00                	push   $0x0
   117b8:	68 6a 1a 01 00       	push   $0x11a6a
   117bd:	6a 10                	push   $0x10
   117bf:	e8 1c e9 ff ff       	call   100e0 <setInterruptHandler>
   117c4:	83 c4 0c             	add    $0xc,%esp
   117c7:	6a 00                	push   $0x0
   117c9:	68 93 1a 01 00       	push   $0x11a93
   117ce:	6a 11                	push   $0x11
   117d0:	e8 0b e9 ff ff       	call   100e0 <setInterruptHandler>
   117d5:	83 c4 10             	add    $0x10,%esp
   117d8:	c9                   	leave  
   117d9:	c3                   	ret    

000117da <divide_error_handler>:
   117da:	0f a8                	push   %gs
   117dc:	0f a0                	push   %fs
   117de:	06                   	push   %es
   117df:	1e                   	push   %ds
   117e0:	50                   	push   %eax
   117e1:	55                   	push   %ebp
   117e2:	57                   	push   %edi
   117e3:	56                   	push   %esi
   117e4:	52                   	push   %edx
   117e5:	51                   	push   %ecx
   117e6:	53                   	push   %ebx
   117e7:	ba 18 00 00 00       	mov    $0x18,%edx
   117ec:	8e da                	mov    %edx,%ds
   117ee:	8e c2                	mov    %edx,%es
   117f0:	e8 6b fc ff ff       	call   11460 <divide_error_routine>
   117f5:	5b                   	pop    %ebx
   117f6:	59                   	pop    %ecx
   117f7:	5a                   	pop    %edx
   117f8:	5e                   	pop    %esi
   117f9:	5f                   	pop    %edi
   117fa:	5d                   	pop    %ebp
   117fb:	58                   	pop    %eax
   117fc:	1f                   	pop    %ds
   117fd:	07                   	pop    %es
   117fe:	0f a1                	pop    %fs
   11800:	0f a9                	pop    %gs
   11802:	cf                   	iret   

00011803 <debug_handler>:
   11803:	0f a8                	push   %gs
   11805:	0f a0                	push   %fs
   11807:	06                   	push   %es
   11808:	1e                   	push   %ds
   11809:	50                   	push   %eax
   1180a:	55                   	push   %ebp
   1180b:	57                   	push   %edi
   1180c:	56                   	push   %esi
   1180d:	52                   	push   %edx
   1180e:	51                   	push   %ecx
   1180f:	53                   	push   %ebx
   11810:	ba 18 00 00 00       	mov    $0x18,%edx
   11815:	8e da                	mov    %edx,%ds
   11817:	8e c2                	mov    %edx,%es
   11819:	e8 62 fc ff ff       	call   11480 <debug_routine>
   1181e:	5b                   	pop    %ebx
   1181f:	59                   	pop    %ecx
   11820:	5a                   	pop    %edx
   11821:	5e                   	pop    %esi
   11822:	5f                   	pop    %edi
   11823:	5d                   	pop    %ebp
   11824:	58                   	pop    %eax
   11825:	1f                   	pop    %ds
   11826:	07                   	pop    %es
   11827:	0f a1                	pop    %fs
   11829:	0f a9                	pop    %gs
   1182b:	cf                   	iret   

0001182c <nm1_handler>:
   1182c:	0f a8                	push   %gs
   1182e:	0f a0                	push   %fs
   11830:	06                   	push   %es
   11831:	1e                   	push   %ds
   11832:	50                   	push   %eax
   11833:	55                   	push   %ebp
   11834:	57                   	push   %edi
   11835:	56                   	push   %esi
   11836:	52                   	push   %edx
   11837:	51                   	push   %ecx
   11838:	53                   	push   %ebx
   11839:	ba 18 00 00 00       	mov    $0x18,%edx
   1183e:	8e da                	mov    %edx,%ds
   11840:	8e c2                	mov    %edx,%es
   11842:	e8 59 fc ff ff       	call   114a0 <nm1_routine>
   11847:	5b                   	pop    %ebx
   11848:	59                   	pop    %ecx
   11849:	5a                   	pop    %edx
   1184a:	5e                   	pop    %esi
   1184b:	5f                   	pop    %edi
   1184c:	5d                   	pop    %ebp
   1184d:	58                   	pop    %eax
   1184e:	1f                   	pop    %ds
   1184f:	07                   	pop    %es
   11850:	0f a1                	pop    %fs
   11852:	0f a9                	pop    %gs
   11854:	cf                   	iret   

00011855 <breakpoint_handler>:
   11855:	0f a8                	push   %gs
   11857:	0f a0                	push   %fs
   11859:	06                   	push   %es
   1185a:	1e                   	push   %ds
   1185b:	50                   	push   %eax
   1185c:	55                   	push   %ebp
   1185d:	57                   	push   %edi
   1185e:	56                   	push   %esi
   1185f:	52                   	push   %edx
   11860:	51                   	push   %ecx
   11861:	53                   	push   %ebx
   11862:	ba 18 00 00 00       	mov    $0x18,%edx
   11867:	8e da                	mov    %edx,%ds
   11869:	8e c2                	mov    %edx,%es
   1186b:	e8 50 fc ff ff       	call   114c0 <breakpoint_routine>
   11870:	5b                   	pop    %ebx
   11871:	59                   	pop    %ecx
   11872:	5a                   	pop    %edx
   11873:	5e                   	pop    %esi
   11874:	5f                   	pop    %edi
   11875:	5d                   	pop    %ebp
   11876:	58                   	pop    %eax
   11877:	1f                   	pop    %ds
   11878:	07                   	pop    %es
   11879:	0f a1                	pop    %fs
   1187b:	0f a9                	pop    %gs
   1187d:	cf                   	iret   

0001187e <overflow_handler>:
   1187e:	0f a8                	push   %gs
   11880:	0f a0                	push   %fs
   11882:	06                   	push   %es
   11883:	1e                   	push   %ds
   11884:	50                   	push   %eax
   11885:	55                   	push   %ebp
   11886:	57                   	push   %edi
   11887:	56                   	push   %esi
   11888:	52                   	push   %edx
   11889:	51                   	push   %ecx
   1188a:	53                   	push   %ebx
   1188b:	ba 18 00 00 00       	mov    $0x18,%edx
   11890:	8e da                	mov    %edx,%ds
   11892:	8e c2                	mov    %edx,%es
   11894:	e8 47 fc ff ff       	call   114e0 <overflow_routine>
   11899:	5b                   	pop    %ebx
   1189a:	59                   	pop    %ecx
   1189b:	5a                   	pop    %edx
   1189c:	5e                   	pop    %esi
   1189d:	5f                   	pop    %edi
   1189e:	5d                   	pop    %ebp
   1189f:	58                   	pop    %eax
   118a0:	1f                   	pop    %ds
   118a1:	07                   	pop    %es
   118a2:	0f a1                	pop    %fs
   118a4:	0f a9                	pop    %gs
   118a6:	cf                   	iret   

000118a7 <bounds_check_handler>:
   118a7:	0f a8                	push   %gs
   118a9:	0f a0                	push   %fs
   118ab:	06                   	push   %es
   118ac:	1e                   	push   %ds
   118ad:	50                   	push   %eax
   118ae:	55                   	push   %ebp
   118af:	57                   	push   %edi
   118b0:	56                   	push   %esi
   118b1:	52                   	push   %edx
   118b2:	51                   	push   %ecx
   118b3:	53                   	push   %ebx
   118b4:	ba 18 00 00 00       	mov    $0x18,%edx
   118b9:	8e da                	mov    %edx,%ds
   118bb:	8e c2                	mov    %edx,%es
   118bd:	e8 3e fc ff ff       	call   11500 <bounds_check_routine>
   118c2:	5b                   	pop    %ebx
   118c3:	59                   	pop    %ecx
   118c4:	5a                   	pop    %edx
   118c5:	5e                   	pop    %esi
   118c6:	5f                   	pop    %edi
   118c7:	5d                   	pop    %ebp
   118c8:	58                   	pop    %eax
   118c9:	1f                   	pop    %ds
   118ca:	07                   	pop    %es
   118cb:	0f a1                	pop    %fs
   118cd:	0f a9                	pop    %gs
   118cf:	cf                   	iret   

000118d0 <invalid_opcode_handler>:
   118d0:	0f a8                	push   %gs
   118d2:	0f a0                	push   %fs
   118d4:	06                   	push   %es
   118d5:	1e                   	push   %ds
   118d6:	50                   	push   %eax
   118d7:	55                   	push   %ebp
   118d8:	57                   	push   %edi
   118d9:	56                   	push   %esi
   118da:	52                   	push   %edx
   118db:	51                   	push   %ecx
   118dc:	53                   	push   %ebx
   118dd:	ba 18 00 00 00       	mov    $0x18,%edx
   118e2:	8e da                	mov    %edx,%ds
   118e4:	8e c2                	mov    %edx,%es
   118e6:	e8 35 fc ff ff       	call   11520 <invalid_opcode_routine>
   118eb:	5b                   	pop    %ebx
   118ec:	59                   	pop    %ecx
   118ed:	5a                   	pop    %edx
   118ee:	5e                   	pop    %esi
   118ef:	5f                   	pop    %edi
   118f0:	5d                   	pop    %ebp
   118f1:	58                   	pop    %eax
   118f2:	1f                   	pop    %ds
   118f3:	07                   	pop    %es
   118f4:	0f a1                	pop    %fs
   118f6:	0f a9                	pop    %gs
   118f8:	cf                   	iret   

000118f9 <device_not_available_handler>:
   118f9:	0f a8                	push   %gs
   118fb:	0f a0                	push   %fs
   118fd:	06                   	push   %es
   118fe:	1e                   	push   %ds
   118ff:	50                   	push   %eax
   11900:	55                   	push   %ebp
   11901:	57                   	push   %edi
   11902:	56                   	push   %esi
   11903:	52                   	push   %edx
   11904:	51                   	push   %ecx
   11905:	53                   	push   %ebx
   11906:	ba 18 00 00 00       	mov    $0x18,%edx
   1190b:	8e da                	mov    %edx,%ds
   1190d:	8e c2                	mov    %edx,%es
   1190f:	e8 2c fc ff ff       	call   11540 <device_not_available_routine>
   11914:	5b                   	pop    %ebx
   11915:	59                   	pop    %ecx
   11916:	5a                   	pop    %edx
   11917:	5e                   	pop    %esi
   11918:	5f                   	pop    %edi
   11919:	5d                   	pop    %ebp
   1191a:	58                   	pop    %eax
   1191b:	1f                   	pop    %ds
   1191c:	07                   	pop    %es
   1191d:	0f a1                	pop    %fs
   1191f:	0f a9                	pop    %gs
   11921:	cf                   	iret   

00011922 <double_fault_handler>:
   11922:	0f a8                	push   %gs
   11924:	0f a0                	push   %fs
   11926:	06                   	push   %es
   11927:	1e                   	push   %ds
   11928:	50                   	push   %eax
   11929:	55                   	push   %ebp
   1192a:	57                   	push   %edi
   1192b:	56                   	push   %esi
   1192c:	52                   	push   %edx
   1192d:	51                   	push   %ecx
   1192e:	53                   	push   %ebx
   1192f:	ba 18 00 00 00       	mov    $0x18,%edx
   11934:	8e da                	mov    %edx,%ds
   11936:	8e c2                	mov    %edx,%es
   11938:	e8 23 fc ff ff       	call   11560 <double_fault_routine>
   1193d:	5b                   	pop    %ebx
   1193e:	59                   	pop    %ecx
   1193f:	5a                   	pop    %edx
   11940:	5e                   	pop    %esi
   11941:	5f                   	pop    %edi
   11942:	5d                   	pop    %ebp
   11943:	58                   	pop    %eax
   11944:	1f                   	pop    %ds
   11945:	07                   	pop    %es
   11946:	0f a1                	pop    %fs
   11948:	0f a9                	pop    %gs
   1194a:	cf                   	iret   

0001194b <coprocessor_segment_overrun_handler>:
   1194b:	0f a8                	push   %gs
   1194d:	0f a0                	push   %fs
   1194f:	06                   	push   %es
   11950:	1e                   	push   %ds
   11951:	50                   	push   %eax
   11952:	55                   	push   %ebp
   11953:	57                   	push   %edi
   11954:	56                   	push   %esi
   11955:	52                   	push   %edx
   11956:	51                   	push   %ecx
   11957:	53                   	push   %ebx
   11958:	ba 18 00 00 00       	mov    $0x18,%edx
   1195d:	8e da                	mov    %edx,%ds
   1195f:	8e c2                	mov    %edx,%es
   11961:	e8 1a fc ff ff       	call   11580 <coprocessor_segment_overrun_routine>
   11966:	5b                   	pop    %ebx
   11967:	59                   	pop    %ecx
   11968:	5a                   	pop    %edx
   11969:	5e                   	pop    %esi
   1196a:	5f                   	pop    %edi
   1196b:	5d                   	pop    %ebp
   1196c:	58                   	pop    %eax
   1196d:	1f                   	pop    %ds
   1196e:	07                   	pop    %es
   1196f:	0f a1                	pop    %fs
   11971:	0f a9                	pop    %gs
   11973:	cf                   	iret   

00011974 <invalid_tss_handler>:
   11974:	0f a8                	push   %gs
   11976:	0f a0                	push   %fs
   11978:	06                   	push   %es
   11979:	1e                   	push   %ds
   1197a:	50                   	push   %eax
   1197b:	55                   	push   %ebp
   1197c:	57                   	push   %edi
   1197d:	56                   	push   %esi
   1197e:	52                   	push   %edx
   1197f:	51                   	push   %ecx
   11980:	53                   	push   %ebx
   11981:	ba 18 00 00 00       	mov    $0x18,%edx
   11986:	8e da                	mov    %edx,%ds
   11988:	8e c2                	mov    %edx,%es
   1198a:	e8 11 fc ff ff       	call   115a0 <invalid_tss_routine>
   1198f:	5b                   	pop    %ebx
   11990:	59                   	pop    %ecx
   11991:	5a                   	pop    %edx
   11992:	5e                   	pop    %esi
   11993:	5f                   	pop    %edi
   11994:	5d                   	pop    %ebp
   11995:	58                   	pop    %eax
   11996:	1f                   	pop    %ds
   11997:	07                   	pop    %es
   11998:	0f a1                	pop    %fs
   1199a:	0f a9                	pop    %gs
   1199c:	cf                   	iret   

0001199d <segment_not_present_handler>:
   1199d:	0f a8                	push   %gs
   1199f:	0f a0                	push   %fs
   119a1:	06                   	push   %es
   119a2:	1e                   	push   %ds
   119a3:	50                   	push   %eax
   119a4:	55                   	push   %ebp
   119a5:	57                   	push   %edi
   119a6:	56                   	push   %esi
   119a7:	52                   	push   %edx
   119a8:	51                   	push   %ecx
   119a9:	53                   	push   %ebx
   119aa:	ba 18 00 00 00       	mov    $0x18,%edx
   119af:	8e da                	mov    %edx,%ds
   119b1:	8e c2                	mov    %edx,%es
   119b3:	e8 08 fc ff ff       	call   115c0 <segment_not_present_routine>
   119b8:	5b                   	pop    %ebx
   119b9:	59                   	pop    %ecx
   119ba:	5a                   	pop    %edx
   119bb:	5e                   	pop    %esi
   119bc:	5f                   	pop    %edi
   119bd:	5d                   	pop    %ebp
   119be:	58                   	pop    %eax
   119bf:	1f                   	pop    %ds
   119c0:	07                   	pop    %es
   119c1:	0f a1                	pop    %fs
   119c3:	0f a9                	pop    %gs
   119c5:	cf                   	iret   

000119c6 <stack_exception_handler>:
   119c6:	0f a8                	push   %gs
   119c8:	0f a0                	push   %fs
   119ca:	06                   	push   %es
   119cb:	1e                   	push   %ds
   119cc:	50                   	push   %eax
   119cd:	55                   	push   %ebp
   119ce:	57                   	push   %edi
   119cf:	56                   	push   %esi
   119d0:	52                   	push   %edx
   119d1:	51                   	push   %ecx
   119d2:	53                   	push   %ebx
   119d3:	ba 18 00 00 00       	mov    $0x18,%edx
   119d8:	8e da                	mov    %edx,%ds
   119da:	8e c2                	mov    %edx,%es
   119dc:	e8 ff fb ff ff       	call   115e0 <stack_exception_routine>
   119e1:	5b                   	pop    %ebx
   119e2:	59                   	pop    %ecx
   119e3:	5a                   	pop    %edx
   119e4:	5e                   	pop    %esi
   119e5:	5f                   	pop    %edi
   119e6:	5d                   	pop    %ebp
   119e7:	58                   	pop    %eax
   119e8:	1f                   	pop    %ds
   119e9:	07                   	pop    %es
   119ea:	0f a1                	pop    %fs
   119ec:	0f a9                	pop    %gs
   119ee:	cf                   	iret   

000119ef <general_protection_handler>:
   119ef:	0f a8                	push   %gs
   119f1:	0f a0                	push   %fs
   119f3:	06                   	push   %es
   119f4:	1e                   	push   %ds
   119f5:	50                   	push   %eax
   119f6:	55                   	push   %ebp
   119f7:	57                   	push   %edi
   119f8:	56                   	push   %esi
   119f9:	52                   	push   %edx
   119fa:	51                   	push   %ecx
   119fb:	53                   	push   %ebx
   119fc:	ba 18 00 00 00       	mov    $0x18,%edx
   11a01:	8e da                	mov    %edx,%ds
   11a03:	8e c2                	mov    %edx,%es
   11a05:	e8 f6 fb ff ff       	call   11600 <general_protection_routine>
   11a0a:	5b                   	pop    %ebx
   11a0b:	59                   	pop    %ecx
   11a0c:	5a                   	pop    %edx
   11a0d:	5e                   	pop    %esi
   11a0e:	5f                   	pop    %edi
   11a0f:	5d                   	pop    %ebp
   11a10:	58                   	pop    %eax
   11a11:	1f                   	pop    %ds
   11a12:	07                   	pop    %es
   11a13:	0f a1                	pop    %fs
   11a15:	0f a9                	pop    %gs
   11a17:	cf                   	iret   

00011a18 <page_fault_handler>:
   11a18:	0f a8                	push   %gs
   11a1a:	0f a0                	push   %fs
   11a1c:	06                   	push   %es
   11a1d:	1e                   	push   %ds
   11a1e:	50                   	push   %eax
   11a1f:	55                   	push   %ebp
   11a20:	57                   	push   %edi
   11a21:	56                   	push   %esi
   11a22:	52                   	push   %edx
   11a23:	51                   	push   %ecx
   11a24:	53                   	push   %ebx
   11a25:	ba 18 00 00 00       	mov    $0x18,%edx
   11a2a:	8e da                	mov    %edx,%ds
   11a2c:	8e c2                	mov    %edx,%es
   11a2e:	e8 ed fb ff ff       	call   11620 <page_fault_routine>
   11a33:	5b                   	pop    %ebx
   11a34:	59                   	pop    %ecx
   11a35:	5a                   	pop    %edx
   11a36:	5e                   	pop    %esi
   11a37:	5f                   	pop    %edi
   11a38:	5d                   	pop    %ebp
   11a39:	58                   	pop    %eax
   11a3a:	1f                   	pop    %ds
   11a3b:	07                   	pop    %es
   11a3c:	0f a1                	pop    %fs
   11a3e:	0f a9                	pop    %gs
   11a40:	cf                   	iret   

00011a41 <intel_reserved_handler>:
   11a41:	0f a8                	push   %gs
   11a43:	0f a0                	push   %fs
   11a45:	06                   	push   %es
   11a46:	1e                   	push   %ds
   11a47:	50                   	push   %eax
   11a48:	55                   	push   %ebp
   11a49:	57                   	push   %edi
   11a4a:	56                   	push   %esi
   11a4b:	52                   	push   %edx
   11a4c:	51                   	push   %ecx
   11a4d:	53                   	push   %ebx
   11a4e:	ba 18 00 00 00       	mov    $0x18,%edx
   11a53:	8e da                	mov    %edx,%ds
   11a55:	8e c2                	mov    %edx,%es
   11a57:	e8 e4 fb ff ff       	call   11640 <intel_reserved_routine>
   11a5c:	5b                   	pop    %ebx
   11a5d:	59                   	pop    %ecx
   11a5e:	5a                   	pop    %edx
   11a5f:	5e                   	pop    %esi
   11a60:	5f                   	pop    %edi
   11a61:	5d                   	pop    %ebp
   11a62:	58                   	pop    %eax
   11a63:	1f                   	pop    %ds
   11a64:	07                   	pop    %es
   11a65:	0f a1                	pop    %fs
   11a67:	0f a9                	pop    %gs
   11a69:	cf                   	iret   

00011a6a <floating_point_error_handler>:
   11a6a:	0f a8                	push   %gs
   11a6c:	0f a0                	push   %fs
   11a6e:	06                   	push   %es
   11a6f:	1e                   	push   %ds
   11a70:	50                   	push   %eax
   11a71:	55                   	push   %ebp
   11a72:	57                   	push   %edi
   11a73:	56                   	push   %esi
   11a74:	52                   	push   %edx
   11a75:	51                   	push   %ecx
   11a76:	53                   	push   %ebx
   11a77:	ba 18 00 00 00       	mov    $0x18,%edx
   11a7c:	8e da                	mov    %edx,%ds
   11a7e:	8e c2                	mov    %edx,%es
   11a80:	e8 db fb ff ff       	call   11660 <floating_point_error_routine>
   11a85:	5b                   	pop    %ebx
   11a86:	59                   	pop    %ecx
   11a87:	5a                   	pop    %edx
   11a88:	5e                   	pop    %esi
   11a89:	5f                   	pop    %edi
   11a8a:	5d                   	pop    %ebp
   11a8b:	58                   	pop    %eax
   11a8c:	1f                   	pop    %ds
   11a8d:	07                   	pop    %es
   11a8e:	0f a1                	pop    %fs
   11a90:	0f a9                	pop    %gs
   11a92:	cf                   	iret   

00011a93 <alignment_check_handler>:
   11a93:	0f a8                	push   %gs
   11a95:	0f a0                	push   %fs
   11a97:	06                   	push   %es
   11a98:	1e                   	push   %ds
   11a99:	50                   	push   %eax
   11a9a:	55                   	push   %ebp
   11a9b:	57                   	push   %edi
   11a9c:	56                   	push   %esi
   11a9d:	52                   	push   %edx
   11a9e:	51                   	push   %ecx
   11a9f:	53                   	push   %ebx
   11aa0:	ba 18 00 00 00       	mov    $0x18,%edx
   11aa5:	8e da                	mov    %edx,%ds
   11aa7:	8e c2                	mov    %edx,%es
   11aa9:	e8 d2 fb ff ff       	call   11680 <alignment_check_routine>
   11aae:	5b                   	pop    %ebx
   11aaf:	59                   	pop    %ecx
   11ab0:	5a                   	pop    %edx
   11ab1:	5e                   	pop    %esi
   11ab2:	5f                   	pop    %edi
   11ab3:	5d                   	pop    %ebp
   11ab4:	58                   	pop    %eax
   11ab5:	1f                   	pop    %ds
   11ab6:	07                   	pop    %es
   11ab7:	0f a1                	pop    %fs
   11ab9:	0f a9                	pop    %gs
   11abb:	cf                   	iret   

Disassembly of section .text.__x86.get_pc_thunk.bx:

00011abc <__x86.get_pc_thunk.bx>:
   11abc:	8b 1c 24             	mov    (%esp),%ebx
   11abf:	c3                   	ret    

Disassembly of section .text.__x86.get_pc_thunk.dx:

00011ac0 <__x86.get_pc_thunk.dx>:
   11ac0:	8b 14 24             	mov    (%esp),%edx
   11ac3:	c3                   	ret    

Disassembly of section .text.__x86.get_pc_thunk.cx:

00011ac4 <__x86.get_pc_thunk.cx>:
   11ac4:	8b 0c 24             	mov    (%esp),%ecx
   11ac7:	c3                   	ret    

Disassembly of section .text.__x86.get_pc_thunk.ax:

00011ac8 <__x86.get_pc_thunk.ax>:
   11ac8:	8b 04 24             	mov    (%esp),%eax
   11acb:	c3                   	ret    

Disassembly of section .text.__x86.get_pc_thunk.di:

00011acc <__x86.get_pc_thunk.di>:
   11acc:	8b 3c 24             	mov    (%esp),%edi
   11acf:	c3                   	ret    
